
CAFETERA_P3.elf:     file format elf32-littlearm

Sections:
Idx Name          Size      VMA       LMA       File off  Algn
  0 .isr_vector   000000c0  08000000  08000000  00001000  2**0
                  CONTENTS, ALLOC, LOAD, READONLY, DATA
  1 .text         00002100  080000c0  080000c0  000010c0  2**2
                  CONTENTS, ALLOC, LOAD, READONLY, CODE
  2 .rodata       00000158  080021c0  080021c0  000031c0  2**2
                  CONTENTS, ALLOC, LOAD, READONLY, DATA
  3 .ARM.extab    00000000  08002318  08002318  00004074  2**0
                  CONTENTS, READONLY
  4 .ARM          00000000  08002318  08002318  00004074  2**0
                  CONTENTS, READONLY
  5 .preinit_array 00000000  08002318  08002318  00004074  2**0
                  CONTENTS, ALLOC, LOAD, DATA
  6 .init_array   00000004  08002318  08002318  00003318  2**2
                  CONTENTS, ALLOC, LOAD, READONLY, DATA
  7 .fini_array   00000004  0800231c  0800231c  0000331c  2**2
                  CONTENTS, ALLOC, LOAD, READONLY, DATA
  8 .data         00000074  20000000  08002320  00004000  2**2
                  CONTENTS, ALLOC, LOAD, DATA
  9 .bss          000001ac  20000074  08002394  00004074  2**2
                  ALLOC
 10 ._user_heap_stack 00000600  20000220  08002394  00004220  2**0
                  ALLOC
 11 .ARM.attributes 00000028  00000000  00000000  00004074  2**0
                  CONTENTS, READONLY
 12 .debug_info   00001526  00000000  00000000  0000409c  2**0
                  CONTENTS, READONLY, DEBUGGING, OCTETS
 13 .debug_abbrev 000004e0  00000000  00000000  000055c2  2**0
                  CONTENTS, READONLY, DEBUGGING, OCTETS
 14 .debug_aranges 000001d0  00000000  00000000  00005aa8  2**3
                  CONTENTS, READONLY, DEBUGGING, OCTETS
 15 .debug_rnglists 00000170  00000000  00000000  00005c78  2**0
                  CONTENTS, READONLY, DEBUGGING, OCTETS
 16 .debug_macro  00012b91  00000000  00000000  00005de8  2**0
                  CONTENTS, READONLY, DEBUGGING, OCTETS
 17 .debug_line   00002a19  00000000  00000000  00018979  2**0
                  CONTENTS, READONLY, DEBUGGING, OCTETS
 18 .debug_str    0007516a  00000000  00000000  0001b392  2**0
                  CONTENTS, READONLY, DEBUGGING, OCTETS
 19 .comment      00000043  00000000  00000000  000904fc  2**0
                  CONTENTS, READONLY
 20 .debug_frame  00000a84  00000000  00000000  00090540  2**2
                  CONTENTS, READONLY, DEBUGGING, OCTETS
 21 .debug_line_str 00000067  00000000  00000000  00090fc4  2**0
                  CONTENTS, READONLY, DEBUGGING, OCTETS

Disassembly of section .text:

080000c0 <__do_global_dtors_aux>:
 80000c0:	b510      	push	{r4, lr}
 80000c2:	4c06      	ldr	r4, [pc, #24]	@ (80000dc <__do_global_dtors_aux+0x1c>)
 80000c4:	7823      	ldrb	r3, [r4, #0]
 80000c6:	2b00      	cmp	r3, #0
 80000c8:	d107      	bne.n	80000da <__do_global_dtors_aux+0x1a>
 80000ca:	4b05      	ldr	r3, [pc, #20]	@ (80000e0 <__do_global_dtors_aux+0x20>)
 80000cc:	2b00      	cmp	r3, #0
 80000ce:	d002      	beq.n	80000d6 <__do_global_dtors_aux+0x16>
 80000d0:	4804      	ldr	r0, [pc, #16]	@ (80000e4 <__do_global_dtors_aux+0x24>)
 80000d2:	e000      	b.n	80000d6 <__do_global_dtors_aux+0x16>
 80000d4:	bf00      	nop
 80000d6:	2301      	movs	r3, #1
 80000d8:	7023      	strb	r3, [r4, #0]
 80000da:	bd10      	pop	{r4, pc}
 80000dc:	20000074 	.word	0x20000074
 80000e0:	00000000 	.word	0x00000000
 80000e4:	080021a8 	.word	0x080021a8

080000e8 <frame_dummy>:
 80000e8:	4b04      	ldr	r3, [pc, #16]	@ (80000fc <frame_dummy+0x14>)
 80000ea:	b510      	push	{r4, lr}
 80000ec:	2b00      	cmp	r3, #0
 80000ee:	d003      	beq.n	80000f8 <frame_dummy+0x10>
 80000f0:	4903      	ldr	r1, [pc, #12]	@ (8000100 <frame_dummy+0x18>)
 80000f2:	4804      	ldr	r0, [pc, #16]	@ (8000104 <frame_dummy+0x1c>)
 80000f4:	e000      	b.n	80000f8 <frame_dummy+0x10>
 80000f6:	bf00      	nop
 80000f8:	bd10      	pop	{r4, pc}
 80000fa:	46c0      	nop			@ (mov r8, r8)
 80000fc:	00000000 	.word	0x00000000
 8000100:	20000078 	.word	0x20000078
 8000104:	080021a8 	.word	0x080021a8

08000108 <strlen>:
 8000108:	2300      	movs	r3, #0
 800010a:	5cc2      	ldrb	r2, [r0, r3]
 800010c:	3301      	adds	r3, #1
 800010e:	2a00      	cmp	r2, #0
 8000110:	d1fb      	bne.n	800010a <strlen+0x2>
 8000112:	1e58      	subs	r0, r3, #1
 8000114:	4770      	bx	lr
	...

08000118 <__gnu_thumb1_case_shi>:
 8000118:	b403      	push	{r0, r1}
 800011a:	4671      	mov	r1, lr
 800011c:	0849      	lsrs	r1, r1, #1
 800011e:	0040      	lsls	r0, r0, #1
 8000120:	0049      	lsls	r1, r1, #1
 8000122:	5e09      	ldrsh	r1, [r1, r0]
 8000124:	0049      	lsls	r1, r1, #1
 8000126:	448e      	add	lr, r1
 8000128:	bc03      	pop	{r0, r1}
 800012a:	4770      	bx	lr

0800012c <__udivsi3>:
 800012c:	2200      	movs	r2, #0
 800012e:	0843      	lsrs	r3, r0, #1
 8000130:	428b      	cmp	r3, r1
 8000132:	d374      	bcc.n	800021e <__udivsi3+0xf2>
 8000134:	0903      	lsrs	r3, r0, #4
 8000136:	428b      	cmp	r3, r1
 8000138:	d35f      	bcc.n	80001fa <__udivsi3+0xce>
 800013a:	0a03      	lsrs	r3, r0, #8
 800013c:	428b      	cmp	r3, r1
 800013e:	d344      	bcc.n	80001ca <__udivsi3+0x9e>
 8000140:	0b03      	lsrs	r3, r0, #12
 8000142:	428b      	cmp	r3, r1
 8000144:	d328      	bcc.n	8000198 <__udivsi3+0x6c>
 8000146:	0c03      	lsrs	r3, r0, #16
 8000148:	428b      	cmp	r3, r1
 800014a:	d30d      	bcc.n	8000168 <__udivsi3+0x3c>
 800014c:	22ff      	movs	r2, #255	@ 0xff
 800014e:	0209      	lsls	r1, r1, #8
 8000150:	ba12      	rev	r2, r2
 8000152:	0c03      	lsrs	r3, r0, #16
 8000154:	428b      	cmp	r3, r1
 8000156:	d302      	bcc.n	800015e <__udivsi3+0x32>
 8000158:	1212      	asrs	r2, r2, #8
 800015a:	0209      	lsls	r1, r1, #8
 800015c:	d065      	beq.n	800022a <__udivsi3+0xfe>
 800015e:	0b03      	lsrs	r3, r0, #12
 8000160:	428b      	cmp	r3, r1
 8000162:	d319      	bcc.n	8000198 <__udivsi3+0x6c>
 8000164:	e000      	b.n	8000168 <__udivsi3+0x3c>
 8000166:	0a09      	lsrs	r1, r1, #8
 8000168:	0bc3      	lsrs	r3, r0, #15
 800016a:	428b      	cmp	r3, r1
 800016c:	d301      	bcc.n	8000172 <__udivsi3+0x46>
 800016e:	03cb      	lsls	r3, r1, #15
 8000170:	1ac0      	subs	r0, r0, r3
 8000172:	4152      	adcs	r2, r2
 8000174:	0b83      	lsrs	r3, r0, #14
 8000176:	428b      	cmp	r3, r1
 8000178:	d301      	bcc.n	800017e <__udivsi3+0x52>
 800017a:	038b      	lsls	r3, r1, #14
 800017c:	1ac0      	subs	r0, r0, r3
 800017e:	4152      	adcs	r2, r2
 8000180:	0b43      	lsrs	r3, r0, #13
 8000182:	428b      	cmp	r3, r1
 8000184:	d301      	bcc.n	800018a <__udivsi3+0x5e>
 8000186:	034b      	lsls	r3, r1, #13
 8000188:	1ac0      	subs	r0, r0, r3
 800018a:	4152      	adcs	r2, r2
 800018c:	0b03      	lsrs	r3, r0, #12
 800018e:	428b      	cmp	r3, r1
 8000190:	d301      	bcc.n	8000196 <__udivsi3+0x6a>
 8000192:	030b      	lsls	r3, r1, #12
 8000194:	1ac0      	subs	r0, r0, r3
 8000196:	4152      	adcs	r2, r2
 8000198:	0ac3      	lsrs	r3, r0, #11
 800019a:	428b      	cmp	r3, r1
 800019c:	d301      	bcc.n	80001a2 <__udivsi3+0x76>
 800019e:	02cb      	lsls	r3, r1, #11
 80001a0:	1ac0      	subs	r0, r0, r3
 80001a2:	4152      	adcs	r2, r2
 80001a4:	0a83      	lsrs	r3, r0, #10
 80001a6:	428b      	cmp	r3, r1
 80001a8:	d301      	bcc.n	80001ae <__udivsi3+0x82>
 80001aa:	028b      	lsls	r3, r1, #10
 80001ac:	1ac0      	subs	r0, r0, r3
 80001ae:	4152      	adcs	r2, r2
 80001b0:	0a43      	lsrs	r3, r0, #9
 80001b2:	428b      	cmp	r3, r1
 80001b4:	d301      	bcc.n	80001ba <__udivsi3+0x8e>
 80001b6:	024b      	lsls	r3, r1, #9
 80001b8:	1ac0      	subs	r0, r0, r3
 80001ba:	4152      	adcs	r2, r2
 80001bc:	0a03      	lsrs	r3, r0, #8
 80001be:	428b      	cmp	r3, r1
 80001c0:	d301      	bcc.n	80001c6 <__udivsi3+0x9a>
 80001c2:	020b      	lsls	r3, r1, #8
 80001c4:	1ac0      	subs	r0, r0, r3
 80001c6:	4152      	adcs	r2, r2
 80001c8:	d2cd      	bcs.n	8000166 <__udivsi3+0x3a>
 80001ca:	09c3      	lsrs	r3, r0, #7
 80001cc:	428b      	cmp	r3, r1
 80001ce:	d301      	bcc.n	80001d4 <__udivsi3+0xa8>
 80001d0:	01cb      	lsls	r3, r1, #7
 80001d2:	1ac0      	subs	r0, r0, r3
 80001d4:	4152      	adcs	r2, r2
 80001d6:	0983      	lsrs	r3, r0, #6
 80001d8:	428b      	cmp	r3, r1
 80001da:	d301      	bcc.n	80001e0 <__udivsi3+0xb4>
 80001dc:	018b      	lsls	r3, r1, #6
 80001de:	1ac0      	subs	r0, r0, r3
 80001e0:	4152      	adcs	r2, r2
 80001e2:	0943      	lsrs	r3, r0, #5
 80001e4:	428b      	cmp	r3, r1
 80001e6:	d301      	bcc.n	80001ec <__udivsi3+0xc0>
 80001e8:	014b      	lsls	r3, r1, #5
 80001ea:	1ac0      	subs	r0, r0, r3
 80001ec:	4152      	adcs	r2, r2
 80001ee:	0903      	lsrs	r3, r0, #4
 80001f0:	428b      	cmp	r3, r1
 80001f2:	d301      	bcc.n	80001f8 <__udivsi3+0xcc>
 80001f4:	010b      	lsls	r3, r1, #4
 80001f6:	1ac0      	subs	r0, r0, r3
 80001f8:	4152      	adcs	r2, r2
 80001fa:	08c3      	lsrs	r3, r0, #3
 80001fc:	428b      	cmp	r3, r1
 80001fe:	d301      	bcc.n	8000204 <__udivsi3+0xd8>
 8000200:	00cb      	lsls	r3, r1, #3
 8000202:	1ac0      	subs	r0, r0, r3
 8000204:	4152      	adcs	r2, r2
 8000206:	0883      	lsrs	r3, r0, #2
 8000208:	428b      	cmp	r3, r1
 800020a:	d301      	bcc.n	8000210 <__udivsi3+0xe4>
 800020c:	008b      	lsls	r3, r1, #2
 800020e:	1ac0      	subs	r0, r0, r3
 8000210:	4152      	adcs	r2, r2
 8000212:	0843      	lsrs	r3, r0, #1
 8000214:	428b      	cmp	r3, r1
 8000216:	d301      	bcc.n	800021c <__udivsi3+0xf0>
 8000218:	004b      	lsls	r3, r1, #1
 800021a:	1ac0      	subs	r0, r0, r3
 800021c:	4152      	adcs	r2, r2
 800021e:	1a41      	subs	r1, r0, r1
 8000220:	d200      	bcs.n	8000224 <__udivsi3+0xf8>
 8000222:	4601      	mov	r1, r0
 8000224:	4152      	adcs	r2, r2
 8000226:	4610      	mov	r0, r2
 8000228:	4770      	bx	lr
 800022a:	e7ff      	b.n	800022c <__udivsi3+0x100>
 800022c:	b501      	push	{r0, lr}
 800022e:	2000      	movs	r0, #0
 8000230:	f000 f8f0 	bl	8000414 <__aeabi_idiv0>
 8000234:	bd02      	pop	{r1, pc}
 8000236:	46c0      	nop			@ (mov r8, r8)

08000238 <__aeabi_uidivmod>:
 8000238:	2900      	cmp	r1, #0
 800023a:	d0f7      	beq.n	800022c <__udivsi3+0x100>
 800023c:	e776      	b.n	800012c <__udivsi3>
 800023e:	4770      	bx	lr

08000240 <__divsi3>:
 8000240:	4603      	mov	r3, r0
 8000242:	430b      	orrs	r3, r1
 8000244:	d47f      	bmi.n	8000346 <__divsi3+0x106>
 8000246:	2200      	movs	r2, #0
 8000248:	0843      	lsrs	r3, r0, #1
 800024a:	428b      	cmp	r3, r1
 800024c:	d374      	bcc.n	8000338 <__divsi3+0xf8>
 800024e:	0903      	lsrs	r3, r0, #4
 8000250:	428b      	cmp	r3, r1
 8000252:	d35f      	bcc.n	8000314 <__divsi3+0xd4>
 8000254:	0a03      	lsrs	r3, r0, #8
 8000256:	428b      	cmp	r3, r1
 8000258:	d344      	bcc.n	80002e4 <__divsi3+0xa4>
 800025a:	0b03      	lsrs	r3, r0, #12
 800025c:	428b      	cmp	r3, r1
 800025e:	d328      	bcc.n	80002b2 <__divsi3+0x72>
 8000260:	0c03      	lsrs	r3, r0, #16
 8000262:	428b      	cmp	r3, r1
 8000264:	d30d      	bcc.n	8000282 <__divsi3+0x42>
 8000266:	22ff      	movs	r2, #255	@ 0xff
 8000268:	0209      	lsls	r1, r1, #8
 800026a:	ba12      	rev	r2, r2
 800026c:	0c03      	lsrs	r3, r0, #16
 800026e:	428b      	cmp	r3, r1
 8000270:	d302      	bcc.n	8000278 <__divsi3+0x38>
 8000272:	1212      	asrs	r2, r2, #8
 8000274:	0209      	lsls	r1, r1, #8
 8000276:	d065      	beq.n	8000344 <__divsi3+0x104>
 8000278:	0b03      	lsrs	r3, r0, #12
 800027a:	428b      	cmp	r3, r1
 800027c:	d319      	bcc.n	80002b2 <__divsi3+0x72>
 800027e:	e000      	b.n	8000282 <__divsi3+0x42>
 8000280:	0a09      	lsrs	r1, r1, #8
 8000282:	0bc3      	lsrs	r3, r0, #15
 8000284:	428b      	cmp	r3, r1
 8000286:	d301      	bcc.n	800028c <__divsi3+0x4c>
 8000288:	03cb      	lsls	r3, r1, #15
 800028a:	1ac0      	subs	r0, r0, r3
 800028c:	4152      	adcs	r2, r2
 800028e:	0b83      	lsrs	r3, r0, #14
 8000290:	428b      	cmp	r3, r1
 8000292:	d301      	bcc.n	8000298 <__divsi3+0x58>
 8000294:	038b      	lsls	r3, r1, #14
 8000296:	1ac0      	subs	r0, r0, r3
 8000298:	4152      	adcs	r2, r2
 800029a:	0b43      	lsrs	r3, r0, #13
 800029c:	428b      	cmp	r3, r1
 800029e:	d301      	bcc.n	80002a4 <__divsi3+0x64>
 80002a0:	034b      	lsls	r3, r1, #13
 80002a2:	1ac0      	subs	r0, r0, r3
 80002a4:	4152      	adcs	r2, r2
 80002a6:	0b03      	lsrs	r3, r0, #12
 80002a8:	428b      	cmp	r3, r1
 80002aa:	d301      	bcc.n	80002b0 <__divsi3+0x70>
 80002ac:	030b      	lsls	r3, r1, #12
 80002ae:	1ac0      	subs	r0, r0, r3
 80002b0:	4152      	adcs	r2, r2
 80002b2:	0ac3      	lsrs	r3, r0, #11
 80002b4:	428b      	cmp	r3, r1
 80002b6:	d301      	bcc.n	80002bc <__divsi3+0x7c>
 80002b8:	02cb      	lsls	r3, r1, #11
 80002ba:	1ac0      	subs	r0, r0, r3
 80002bc:	4152      	adcs	r2, r2
 80002be:	0a83      	lsrs	r3, r0, #10
 80002c0:	428b      	cmp	r3, r1
 80002c2:	d301      	bcc.n	80002c8 <__divsi3+0x88>
 80002c4:	028b      	lsls	r3, r1, #10
 80002c6:	1ac0      	subs	r0, r0, r3
 80002c8:	4152      	adcs	r2, r2
 80002ca:	0a43      	lsrs	r3, r0, #9
 80002cc:	428b      	cmp	r3, r1
 80002ce:	d301      	bcc.n	80002d4 <__divsi3+0x94>
 80002d0:	024b      	lsls	r3, r1, #9
 80002d2:	1ac0      	subs	r0, r0, r3
 80002d4:	4152      	adcs	r2, r2
 80002d6:	0a03      	lsrs	r3, r0, #8
 80002d8:	428b      	cmp	r3, r1
 80002da:	d301      	bcc.n	80002e0 <__divsi3+0xa0>
 80002dc:	020b      	lsls	r3, r1, #8
 80002de:	1ac0      	subs	r0, r0, r3
 80002e0:	4152      	adcs	r2, r2
 80002e2:	d2cd      	bcs.n	8000280 <__divsi3+0x40>
 80002e4:	09c3      	lsrs	r3, r0, #7
 80002e6:	428b      	cmp	r3, r1
 80002e8:	d301      	bcc.n	80002ee <__divsi3+0xae>
 80002ea:	01cb      	lsls	r3, r1, #7
 80002ec:	1ac0      	subs	r0, r0, r3
 80002ee:	4152      	adcs	r2, r2
 80002f0:	0983      	lsrs	r3, r0, #6
 80002f2:	428b      	cmp	r3, r1
 80002f4:	d301      	bcc.n	80002fa <__divsi3+0xba>
 80002f6:	018b      	lsls	r3, r1, #6
 80002f8:	1ac0      	subs	r0, r0, r3
 80002fa:	4152      	adcs	r2, r2
 80002fc:	0943      	lsrs	r3, r0, #5
 80002fe:	428b      	cmp	r3, r1
 8000300:	d301      	bcc.n	8000306 <__divsi3+0xc6>
 8000302:	014b      	lsls	r3, r1, #5
 8000304:	1ac0      	subs	r0, r0, r3
 8000306:	4152      	adcs	r2, r2
 8000308:	0903      	lsrs	r3, r0, #4
 800030a:	428b      	cmp	r3, r1
 800030c:	d301      	bcc.n	8000312 <__divsi3+0xd2>
 800030e:	010b      	lsls	r3, r1, #4
 8000310:	1ac0      	subs	r0, r0, r3
 8000312:	4152      	adcs	r2, r2
 8000314:	08c3      	lsrs	r3, r0, #3
 8000316:	428b      	cmp	r3, r1
 8000318:	d301      	bcc.n	800031e <__divsi3+0xde>
 800031a:	00cb      	lsls	r3, r1, #3
 800031c:	1ac0      	subs	r0, r0, r3
 800031e:	4152      	adcs	r2, r2
 8000320:	0883      	lsrs	r3, r0, #2
 8000322:	428b      	cmp	r3, r1
 8000324:	d301      	bcc.n	800032a <__divsi3+0xea>
 8000326:	008b      	lsls	r3, r1, #2
 8000328:	1ac0      	subs	r0, r0, r3
 800032a:	4152      	adcs	r2, r2
 800032c:	0843      	lsrs	r3, r0, #1
 800032e:	428b      	cmp	r3, r1
 8000330:	d301      	bcc.n	8000336 <__divsi3+0xf6>
 8000332:	004b      	lsls	r3, r1, #1
 8000334:	1ac0      	subs	r0, r0, r3
 8000336:	4152      	adcs	r2, r2
 8000338:	1a41      	subs	r1, r0, r1
 800033a:	d200      	bcs.n	800033e <__divsi3+0xfe>
 800033c:	4601      	mov	r1, r0
 800033e:	4152      	adcs	r2, r2
 8000340:	4610      	mov	r0, r2
 8000342:	4770      	bx	lr
 8000344:	e05d      	b.n	8000402 <__divsi3+0x1c2>
 8000346:	0fca      	lsrs	r2, r1, #31
 8000348:	d000      	beq.n	800034c <__divsi3+0x10c>
 800034a:	4249      	negs	r1, r1
 800034c:	1003      	asrs	r3, r0, #32
 800034e:	d300      	bcc.n	8000352 <__divsi3+0x112>
 8000350:	4240      	negs	r0, r0
 8000352:	4053      	eors	r3, r2
 8000354:	2200      	movs	r2, #0
 8000356:	469c      	mov	ip, r3
 8000358:	0903      	lsrs	r3, r0, #4
 800035a:	428b      	cmp	r3, r1
 800035c:	d32d      	bcc.n	80003ba <__divsi3+0x17a>
 800035e:	0a03      	lsrs	r3, r0, #8
 8000360:	428b      	cmp	r3, r1
 8000362:	d312      	bcc.n	800038a <__divsi3+0x14a>
 8000364:	22fc      	movs	r2, #252	@ 0xfc
 8000366:	0189      	lsls	r1, r1, #6
 8000368:	ba12      	rev	r2, r2
 800036a:	0a03      	lsrs	r3, r0, #8
 800036c:	428b      	cmp	r3, r1
 800036e:	d30c      	bcc.n	800038a <__divsi3+0x14a>
 8000370:	0189      	lsls	r1, r1, #6
 8000372:	1192      	asrs	r2, r2, #6
 8000374:	428b      	cmp	r3, r1
 8000376:	d308      	bcc.n	800038a <__divsi3+0x14a>
 8000378:	0189      	lsls	r1, r1, #6
 800037a:	1192      	asrs	r2, r2, #6
 800037c:	428b      	cmp	r3, r1
 800037e:	d304      	bcc.n	800038a <__divsi3+0x14a>
 8000380:	0189      	lsls	r1, r1, #6
 8000382:	d03a      	beq.n	80003fa <__divsi3+0x1ba>
 8000384:	1192      	asrs	r2, r2, #6
 8000386:	e000      	b.n	800038a <__divsi3+0x14a>
 8000388:	0989      	lsrs	r1, r1, #6
 800038a:	09c3      	lsrs	r3, r0, #7
 800038c:	428b      	cmp	r3, r1
 800038e:	d301      	bcc.n	8000394 <__divsi3+0x154>
 8000390:	01cb      	lsls	r3, r1, #7
 8000392:	1ac0      	subs	r0, r0, r3
 8000394:	4152      	adcs	r2, r2
 8000396:	0983      	lsrs	r3, r0, #6
 8000398:	428b      	cmp	r3, r1
 800039a:	d301      	bcc.n	80003a0 <__divsi3+0x160>
 800039c:	018b      	lsls	r3, r1, #6
 800039e:	1ac0      	subs	r0, r0, r3
 80003a0:	4152      	adcs	r2, r2
 80003a2:	0943      	lsrs	r3, r0, #5
 80003a4:	428b      	cmp	r3, r1
 80003a6:	d301      	bcc.n	80003ac <__divsi3+0x16c>
 80003a8:	014b      	lsls	r3, r1, #5
 80003aa:	1ac0      	subs	r0, r0, r3
 80003ac:	4152      	adcs	r2, r2
 80003ae:	0903      	lsrs	r3, r0, #4
 80003b0:	428b      	cmp	r3, r1
 80003b2:	d301      	bcc.n	80003b8 <__divsi3+0x178>
 80003b4:	010b      	lsls	r3, r1, #4
 80003b6:	1ac0      	subs	r0, r0, r3
 80003b8:	4152      	adcs	r2, r2
 80003ba:	08c3      	lsrs	r3, r0, #3
 80003bc:	428b      	cmp	r3, r1
 80003be:	d301      	bcc.n	80003c4 <__divsi3+0x184>
 80003c0:	00cb      	lsls	r3, r1, #3
 80003c2:	1ac0      	subs	r0, r0, r3
 80003c4:	4152      	adcs	r2, r2
 80003c6:	0883      	lsrs	r3, r0, #2
 80003c8:	428b      	cmp	r3, r1
 80003ca:	d301      	bcc.n	80003d0 <__divsi3+0x190>
 80003cc:	008b      	lsls	r3, r1, #2
 80003ce:	1ac0      	subs	r0, r0, r3
 80003d0:	4152      	adcs	r2, r2
 80003d2:	d2d9      	bcs.n	8000388 <__divsi3+0x148>
 80003d4:	0843      	lsrs	r3, r0, #1
 80003d6:	428b      	cmp	r3, r1
 80003d8:	d301      	bcc.n	80003de <__divsi3+0x19e>
 80003da:	004b      	lsls	r3, r1, #1
 80003dc:	1ac0      	subs	r0, r0, r3
 80003de:	4152      	adcs	r2, r2
 80003e0:	1a41      	subs	r1, r0, r1
 80003e2:	d200      	bcs.n	80003e6 <__divsi3+0x1a6>
 80003e4:	4601      	mov	r1, r0
 80003e6:	4663      	mov	r3, ip
 80003e8:	4152      	adcs	r2, r2
 80003ea:	105b      	asrs	r3, r3, #1
 80003ec:	4610      	mov	r0, r2
 80003ee:	d301      	bcc.n	80003f4 <__divsi3+0x1b4>
 80003f0:	4240      	negs	r0, r0
 80003f2:	2b00      	cmp	r3, #0
 80003f4:	d500      	bpl.n	80003f8 <__divsi3+0x1b8>
 80003f6:	4249      	negs	r1, r1
 80003f8:	4770      	bx	lr
 80003fa:	4663      	mov	r3, ip
 80003fc:	105b      	asrs	r3, r3, #1
 80003fe:	d300      	bcc.n	8000402 <__divsi3+0x1c2>
 8000400:	4240      	negs	r0, r0
 8000402:	b501      	push	{r0, lr}
 8000404:	2000      	movs	r0, #0
 8000406:	f000 f805 	bl	8000414 <__aeabi_idiv0>
 800040a:	bd02      	pop	{r1, pc}

0800040c <__aeabi_idivmod>:
 800040c:	2900      	cmp	r1, #0
 800040e:	d0f8      	beq.n	8000402 <__divsi3+0x1c2>
 8000410:	e716      	b.n	8000240 <__divsi3>
 8000412:	4770      	bx	lr

08000414 <__aeabi_idiv0>:
 8000414:	4770      	bx	lr
 8000416:	46c0      	nop			@ (mov r8, r8)

08000418 <main>:
static void servo_start_run(void);
static void servo_stop(void);

/* ===================== Main ===================== */
int main(void)
{
 8000418:	b580      	push	{r7, lr}
 800041a:	af00      	add	r7, sp, #0
  clock_init();
 800041c:	f000 f958 	bl	80006d0 <clock_init>
  gpio_init();
 8000420:	f000 f972 	bl	8000708 <gpio_init>
  i2c1_init_100k();
 8000424:	f000 f9ce 	bl	80007c4 <i2c1_init_100k>
  lcd_init();
 8000428:	f000 fe92 	bl	8001150 <lcd_init>
  buzz_timer_init();
 800042c:	f000 fa14 	bl	8000858 <buzz_timer_init>
  servo_init_pb5();
 8000430:	f000 fa54 	bl	80008dc <servo_init_pb5>
#if (SLIDER_ENABLE)
  adc_init_pa0();
 8000434:	f001 f8c6 	bl	80015c4 <adc_init_pa0>
#endif

  /* SysTick 1ms @16MHz */
  SysTick->LOAD = 16000 - 1;
 8000438:	4b10      	ldr	r3, [pc, #64]	@ (800047c <main+0x64>)
 800043a:	4a11      	ldr	r2, [pc, #68]	@ (8000480 <main+0x68>)
 800043c:	605a      	str	r2, [r3, #4]
  SysTick->VAL  = 0;
 800043e:	4b0f      	ldr	r3, [pc, #60]	@ (800047c <main+0x64>)
 8000440:	2200      	movs	r2, #0
 8000442:	609a      	str	r2, [r3, #8]
  SysTick->CTRL = SysTick_CTRL_CLKSOURCE_Msk | SysTick_CTRL_TICKINT_Msk | SysTick_CTRL_ENABLE_Msk;
 8000444:	4b0d      	ldr	r3, [pc, #52]	@ (800047c <main+0x64>)
 8000446:	2207      	movs	r2, #7
 8000448:	601a      	str	r2, [r3, #0]

  /* Pantalla inicial */
  lcd_clear();
 800044a:	f000 fedf 	bl	800120c <lcd_clear>
  lcd_goto(0,0); lcd_puts("Selecciona una");
 800044e:	2100      	movs	r1, #0
 8000450:	2000      	movs	r0, #0
 8000452:	f000 fef3 	bl	800123c <lcd_goto>
 8000456:	4b0b      	ldr	r3, [pc, #44]	@ (8000484 <main+0x6c>)
 8000458:	0018      	movs	r0, r3
 800045a:	f000 ff13 	bl	8001284 <lcd_puts>
  lcd_goto(1,0); lcd_puts("opcion");
 800045e:	2100      	movs	r1, #0
 8000460:	2001      	movs	r0, #1
 8000462:	f000 feeb 	bl	800123c <lcd_goto>
 8000466:	4b08      	ldr	r3, [pc, #32]	@ (8000488 <main+0x70>)
 8000468:	0018      	movs	r0, r3
 800046a:	f000 ff0b 	bl	8001284 <lcd_puts>
  set_leds(false,false,false);
 800046e:	2200      	movs	r2, #0
 8000470:	2100      	movs	r1, #0
 8000472:	2000      	movs	r0, #0
 8000474:	f000 faf2 	bl	8000a5c <set_leds>

  while(1) { }   // la lógica va en SysTick
 8000478:	46c0      	nop			@ (mov r8, r8)
 800047a:	e7fd      	b.n	8000478 <main+0x60>
 800047c:	e000e010 	.word	0xe000e010
 8000480:	00003e7f 	.word	0x00003e7f
 8000484:	080021f8 	.word	0x080021f8
 8000488:	08002208 	.word	0x08002208

0800048c <SysTick_Handler>:
}

/* ===================== Interrupciones ===================== */
void SysTick_Handler(void)
{
 800048c:	b580      	push	{r7, lr}
 800048e:	b082      	sub	sp, #8
 8000490:	af02      	add	r7, sp, #8
  ms++;
 8000492:	4b7b      	ldr	r3, [pc, #492]	@ (8000680 <SysTick_Handler+0x1f4>)
 8000494:	681b      	ldr	r3, [r3, #0]
 8000496:	1c5a      	adds	r2, r3, #1
 8000498:	4b79      	ldr	r3, [pc, #484]	@ (8000680 <SysTick_Handler+0x1f4>)
 800049a:	601a      	str	r2, [r3, #0]

  /* Botón B1: polling + eventos */
  btn_poll_and_dispatch();
 800049c:	f001 f80a 	bl	80014b4 <btn_poll_and_dispatch>

#if (SLIDER_ENABLE)
  /* Muestreo del slider, % y mapeo S/M/L en APP_SIZE */
  slider_ms_acc++;
 80004a0:	4b78      	ldr	r3, [pc, #480]	@ (8000684 <SysTick_Handler+0x1f8>)
 80004a2:	681b      	ldr	r3, [r3, #0]
 80004a4:	1c5a      	adds	r2, r3, #1
 80004a6:	4b77      	ldr	r3, [pc, #476]	@ (8000684 <SysTick_Handler+0x1f8>)
 80004a8:	601a      	str	r2, [r3, #0]
  if (slider_ms_acc >= SLIDER_SAMPLE_MS) {
 80004aa:	4b76      	ldr	r3, [pc, #472]	@ (8000684 <SysTick_Handler+0x1f8>)
 80004ac:	681b      	ldr	r3, [r3, #0]
 80004ae:	2b18      	cmp	r3, #24
 80004b0:	d931      	bls.n	8000516 <SysTick_Handler+0x8a>
    slider_ms_acc = 0;
 80004b2:	4b74      	ldr	r3, [pc, #464]	@ (8000684 <SysTick_Handler+0x1f8>)
 80004b4:	2200      	movs	r2, #0
 80004b6:	601a      	str	r2, [r3, #0]
    slider_sample_1x();
 80004b8:	f001 f8da 	bl	8001670 <slider_sample_1x>
    slider_pct = map_u16(slider_val, 0, 4095, SLIDER_SIZE_MIN_PCT, SLIDER_SIZE_MAX_PCT);
 80004bc:	4b72      	ldr	r3, [pc, #456]	@ (8000688 <SysTick_Handler+0x1fc>)
 80004be:	881b      	ldrh	r3, [r3, #0]
 80004c0:	b298      	uxth	r0, r3
 80004c2:	4a72      	ldr	r2, [pc, #456]	@ (800068c <SysTick_Handler+0x200>)
 80004c4:	2364      	movs	r3, #100	@ 0x64
 80004c6:	9300      	str	r3, [sp, #0]
 80004c8:	2300      	movs	r3, #0
 80004ca:	2100      	movs	r1, #0
 80004cc:	f001 f904 	bl	80016d8 <map_u16>
 80004d0:	0003      	movs	r3, r0
 80004d2:	001a      	movs	r2, r3
 80004d4:	4b6e      	ldr	r3, [pc, #440]	@ (8000690 <SysTick_Handler+0x204>)
 80004d6:	801a      	strh	r2, [r3, #0]

    if (app == APP_SIZE) {
 80004d8:	4b6e      	ldr	r3, [pc, #440]	@ (8000694 <SysTick_Handler+0x208>)
 80004da:	781b      	ldrb	r3, [r3, #0]
 80004dc:	b2db      	uxtb	r3, r3
 80004de:	2b02      	cmp	r3, #2
 80004e0:	d119      	bne.n	8000516 <SysTick_Handler+0x8a>
      if (slider_val < 1365)       size_sel = 1; // S
 80004e2:	4b69      	ldr	r3, [pc, #420]	@ (8000688 <SysTick_Handler+0x1fc>)
 80004e4:	881b      	ldrh	r3, [r3, #0]
 80004e6:	b29b      	uxth	r3, r3
 80004e8:	4a6b      	ldr	r2, [pc, #428]	@ (8000698 <SysTick_Handler+0x20c>)
 80004ea:	4293      	cmp	r3, r2
 80004ec:	d803      	bhi.n	80004f6 <SysTick_Handler+0x6a>
 80004ee:	4b6b      	ldr	r3, [pc, #428]	@ (800069c <SysTick_Handler+0x210>)
 80004f0:	2201      	movs	r2, #1
 80004f2:	701a      	strb	r2, [r3, #0]
 80004f4:	e00c      	b.n	8000510 <SysTick_Handler+0x84>
      else if (slider_val < 2730)  size_sel = 2; // M
 80004f6:	4b64      	ldr	r3, [pc, #400]	@ (8000688 <SysTick_Handler+0x1fc>)
 80004f8:	881b      	ldrh	r3, [r3, #0]
 80004fa:	b29b      	uxth	r3, r3
 80004fc:	4a68      	ldr	r2, [pc, #416]	@ (80006a0 <SysTick_Handler+0x214>)
 80004fe:	4293      	cmp	r3, r2
 8000500:	d803      	bhi.n	800050a <SysTick_Handler+0x7e>
 8000502:	4b66      	ldr	r3, [pc, #408]	@ (800069c <SysTick_Handler+0x210>)
 8000504:	2202      	movs	r2, #2
 8000506:	701a      	strb	r2, [r3, #0]
 8000508:	e002      	b.n	8000510 <SysTick_Handler+0x84>
      else                         size_sel = 3; // L
 800050a:	4b64      	ldr	r3, [pc, #400]	@ (800069c <SysTick_Handler+0x210>)
 800050c:	2203      	movs	r2, #3
 800050e:	701a      	strb	r2, [r3, #0]
      ui_dirty = true;
 8000510:	4b64      	ldr	r3, [pc, #400]	@ (80006a4 <SysTick_Handler+0x218>)
 8000512:	2201      	movs	r2, #1
 8000514:	701a      	strb	r2, [r3, #0]
    }
  }
#endif

  /* Scroll de textos en IDLE/MENU */
  scroll_ms_acc += 1;
 8000516:	4b64      	ldr	r3, [pc, #400]	@ (80006a8 <SysTick_Handler+0x21c>)
 8000518:	681b      	ldr	r3, [r3, #0]
 800051a:	1c5a      	adds	r2, r3, #1
 800051c:	4b62      	ldr	r3, [pc, #392]	@ (80006a8 <SysTick_Handler+0x21c>)
 800051e:	601a      	str	r2, [r3, #0]
  if (scroll_ms_acc >= SCROLL_PERIOD_MS) {
 8000520:	4b61      	ldr	r3, [pc, #388]	@ (80006a8 <SysTick_Handler+0x21c>)
 8000522:	681a      	ldr	r2, [r3, #0]
 8000524:	2396      	movs	r3, #150	@ 0x96
 8000526:	009b      	lsls	r3, r3, #2
 8000528:	429a      	cmp	r2, r3
 800052a:	d316      	bcc.n	800055a <SysTick_Handler+0xce>
    scroll_ms_acc = 0;
 800052c:	4b5e      	ldr	r3, [pc, #376]	@ (80006a8 <SysTick_Handler+0x21c>)
 800052e:	2200      	movs	r2, #0
 8000530:	601a      	str	r2, [r3, #0]
    if (app==APP_IDLE || app==APP_MENU){
 8000532:	4b58      	ldr	r3, [pc, #352]	@ (8000694 <SysTick_Handler+0x208>)
 8000534:	781b      	ldrb	r3, [r3, #0]
 8000536:	b2db      	uxtb	r3, r3
 8000538:	2b00      	cmp	r3, #0
 800053a:	d004      	beq.n	8000546 <SysTick_Handler+0xba>
 800053c:	4b55      	ldr	r3, [pc, #340]	@ (8000694 <SysTick_Handler+0x208>)
 800053e:	781b      	ldrb	r3, [r3, #0]
 8000540:	b2db      	uxtb	r3, r3
 8000542:	2b01      	cmp	r3, #1
 8000544:	d109      	bne.n	800055a <SysTick_Handler+0xce>
      ui_dirty=true;
 8000546:	4b57      	ldr	r3, [pc, #348]	@ (80006a4 <SysTick_Handler+0x218>)
 8000548:	2201      	movs	r2, #1
 800054a:	701a      	strb	r2, [r3, #0]
      scroll_idx++;
 800054c:	4b57      	ldr	r3, [pc, #348]	@ (80006ac <SysTick_Handler+0x220>)
 800054e:	781b      	ldrb	r3, [r3, #0]
 8000550:	b2db      	uxtb	r3, r3
 8000552:	3301      	adds	r3, #1
 8000554:	b2da      	uxtb	r2, r3
 8000556:	4b55      	ldr	r3, [pc, #340]	@ (80006ac <SysTick_Handler+0x220>)
 8000558:	701a      	strb	r2, [r3, #0]
    }
  }

  /* Temporizador de proceso */
  if (app == APP_RUN) {
 800055a:	4b4e      	ldr	r3, [pc, #312]	@ (8000694 <SysTick_Handler+0x208>)
 800055c:	781b      	ldrb	r3, [r3, #0]
 800055e:	b2db      	uxtb	r3, r3
 8000560:	2b03      	cmp	r3, #3
 8000562:	d151      	bne.n	8000608 <SysTick_Handler+0x17c>
    if (t_rem_ms > 0) {
 8000564:	4b52      	ldr	r3, [pc, #328]	@ (80006b0 <SysTick_Handler+0x224>)
 8000566:	681b      	ldr	r3, [r3, #0]
 8000568:	2b00      	cmp	r3, #0
 800056a:	d037      	beq.n	80005dc <SysTick_Handler+0x150>
      t_rem_ms--;
 800056c:	4b50      	ldr	r3, [pc, #320]	@ (80006b0 <SysTick_Handler+0x224>)
 800056e:	681b      	ldr	r3, [r3, #0]
 8000570:	1e5a      	subs	r2, r3, #1
 8000572:	4b4f      	ldr	r3, [pc, #316]	@ (80006b0 <SysTick_Handler+0x224>)
 8000574:	601a      	str	r2, [r3, #0]
      if (t_phase_rem_ms > 0) {
 8000576:	4b4f      	ldr	r3, [pc, #316]	@ (80006b4 <SysTick_Handler+0x228>)
 8000578:	681b      	ldr	r3, [r3, #0]
 800057a:	2b00      	cmp	r3, #0
 800057c:	d005      	beq.n	800058a <SysTick_Handler+0xfe>
        t_phase_rem_ms--;
 800057e:	4b4d      	ldr	r3, [pc, #308]	@ (80006b4 <SysTick_Handler+0x228>)
 8000580:	681b      	ldr	r3, [r3, #0]
 8000582:	1e5a      	subs	r2, r3, #1
 8000584:	4b4b      	ldr	r3, [pc, #300]	@ (80006b4 <SysTick_Handler+0x228>)
 8000586:	601a      	str	r2, [r3, #0]
 8000588:	e01c      	b.n	80005c4 <SysTick_Handler+0x138>
      } else {
        if (phase == PH1) { phase = PH2; t_phase_rem_ms = t_phase_ms; apply_phase_outputs(); }
 800058a:	4b4b      	ldr	r3, [pc, #300]	@ (80006b8 <SysTick_Handler+0x22c>)
 800058c:	781b      	ldrb	r3, [r3, #0]
 800058e:	b2db      	uxtb	r3, r3
 8000590:	2b00      	cmp	r3, #0
 8000592:	d109      	bne.n	80005a8 <SysTick_Handler+0x11c>
 8000594:	4b48      	ldr	r3, [pc, #288]	@ (80006b8 <SysTick_Handler+0x22c>)
 8000596:	2201      	movs	r2, #1
 8000598:	701a      	strb	r2, [r3, #0]
 800059a:	4b48      	ldr	r3, [pc, #288]	@ (80006bc <SysTick_Handler+0x230>)
 800059c:	681a      	ldr	r2, [r3, #0]
 800059e:	4b45      	ldr	r3, [pc, #276]	@ (80006b4 <SysTick_Handler+0x228>)
 80005a0:	601a      	str	r2, [r3, #0]
 80005a2:	f000 fb47 	bl	8000c34 <apply_phase_outputs>
 80005a6:	e00d      	b.n	80005c4 <SysTick_Handler+0x138>
        else if (phase == PH2) { phase = PH3; t_phase_rem_ms = t_phase_ms; apply_phase_outputs(); }
 80005a8:	4b43      	ldr	r3, [pc, #268]	@ (80006b8 <SysTick_Handler+0x22c>)
 80005aa:	781b      	ldrb	r3, [r3, #0]
 80005ac:	b2db      	uxtb	r3, r3
 80005ae:	2b01      	cmp	r3, #1
 80005b0:	d108      	bne.n	80005c4 <SysTick_Handler+0x138>
 80005b2:	4b41      	ldr	r3, [pc, #260]	@ (80006b8 <SysTick_Handler+0x22c>)
 80005b4:	2202      	movs	r2, #2
 80005b6:	701a      	strb	r2, [r3, #0]
 80005b8:	4b40      	ldr	r3, [pc, #256]	@ (80006bc <SysTick_Handler+0x230>)
 80005ba:	681a      	ldr	r2, [r3, #0]
 80005bc:	4b3d      	ldr	r3, [pc, #244]	@ (80006b4 <SysTick_Handler+0x228>)
 80005be:	601a      	str	r2, [r3, #0]
 80005c0:	f000 fb38 	bl	8000c34 <apply_phase_outputs>
      }
      if ((t_rem_ms % 200) == 0) ui_dirty = true;  // refresco barra
 80005c4:	4b3a      	ldr	r3, [pc, #232]	@ (80006b0 <SysTick_Handler+0x224>)
 80005c6:	681b      	ldr	r3, [r3, #0]
 80005c8:	21c8      	movs	r1, #200	@ 0xc8
 80005ca:	0018      	movs	r0, r3
 80005cc:	f7ff fe34 	bl	8000238 <__aeabi_uidivmod>
 80005d0:	1e0b      	subs	r3, r1, #0
 80005d2:	d119      	bne.n	8000608 <SysTick_Handler+0x17c>
 80005d4:	4b33      	ldr	r3, [pc, #204]	@ (80006a4 <SysTick_Handler+0x218>)
 80005d6:	2201      	movs	r2, #1
 80005d8:	701a      	strb	r2, [r3, #0]
 80005da:	e015      	b.n	8000608 <SysTick_Handler+0x17c>
    } else {
      app = APP_DONE;
 80005dc:	4b2d      	ldr	r3, [pc, #180]	@ (8000694 <SysTick_Handler+0x208>)
 80005de:	2205      	movs	r2, #5
 80005e0:	701a      	strb	r2, [r3, #0]
      set_leds(false,false,false);
 80005e2:	2200      	movs	r2, #0
 80005e4:	2100      	movs	r1, #0
 80005e6:	2000      	movs	r0, #0
 80005e8:	f000 fa38 	bl	8000a5c <set_leds>
      lcd_clear(); lcd_goto(0,0); lcd_puts("Disfrutalo");
 80005ec:	f000 fe0e 	bl	800120c <lcd_clear>
 80005f0:	2100      	movs	r1, #0
 80005f2:	2000      	movs	r0, #0
 80005f4:	f000 fe22 	bl	800123c <lcd_goto>
 80005f8:	4b31      	ldr	r3, [pc, #196]	@ (80006c0 <SysTick_Handler+0x234>)
 80005fa:	0018      	movs	r0, r3
 80005fc:	f000 fe42 	bl	8001284 <lcd_puts>
      buzz_schedule_2();
 8000600:	f000 fa90 	bl	8000b24 <buzz_schedule_2>
      servo_stop();  // detener al terminar
 8000604:	f000 fa1e 	bl	8000a44 <servo_stop>
    }
  }

  /* Buzzer patrón (2 beeps) */
  if (buzz_beeps_left > 0) {
 8000608:	4b2e      	ldr	r3, [pc, #184]	@ (80006c4 <SysTick_Handler+0x238>)
 800060a:	781b      	ldrb	r3, [r3, #0]
 800060c:	b2db      	uxtb	r3, r3
 800060e:	2b00      	cmp	r3, #0
 8000610:	d029      	beq.n	8000666 <SysTick_Handler+0x1da>
    buzz_phase_ms++;
 8000612:	4b2d      	ldr	r3, [pc, #180]	@ (80006c8 <SysTick_Handler+0x23c>)
 8000614:	681b      	ldr	r3, [r3, #0]
 8000616:	1c5a      	adds	r2, r3, #1
 8000618:	4b2b      	ldr	r3, [pc, #172]	@ (80006c8 <SysTick_Handler+0x23c>)
 800061a:	601a      	str	r2, [r3, #0]
    if (buzz_on) {
 800061c:	4b2b      	ldr	r3, [pc, #172]	@ (80006cc <SysTick_Handler+0x240>)
 800061e:	781b      	ldrb	r3, [r3, #0]
 8000620:	b2db      	uxtb	r3, r3
 8000622:	2b00      	cmp	r3, #0
 8000624:	d00c      	beq.n	8000640 <SysTick_Handler+0x1b4>
      if (buzz_phase_ms >= 200) { buzz_stop(); buzz_on=false; buzz_phase_ms=0; }
 8000626:	4b28      	ldr	r3, [pc, #160]	@ (80006c8 <SysTick_Handler+0x23c>)
 8000628:	681b      	ldr	r3, [r3, #0]
 800062a:	2bc7      	cmp	r3, #199	@ 0xc7
 800062c:	d91b      	bls.n	8000666 <SysTick_Handler+0x1da>
 800062e:	f000 fa6b 	bl	8000b08 <buzz_stop>
 8000632:	4b26      	ldr	r3, [pc, #152]	@ (80006cc <SysTick_Handler+0x240>)
 8000634:	2200      	movs	r2, #0
 8000636:	701a      	strb	r2, [r3, #0]
 8000638:	4b23      	ldr	r3, [pc, #140]	@ (80006c8 <SysTick_Handler+0x23c>)
 800063a:	2200      	movs	r2, #0
 800063c:	601a      	str	r2, [r3, #0]
 800063e:	e012      	b.n	8000666 <SysTick_Handler+0x1da>
    } else {
      if (buzz_phase_ms >= 200) { buzz_phase_ms=0; buzz_start(); buzz_on=true; buzz_beeps_left--; }
 8000640:	4b21      	ldr	r3, [pc, #132]	@ (80006c8 <SysTick_Handler+0x23c>)
 8000642:	681b      	ldr	r3, [r3, #0]
 8000644:	2bc7      	cmp	r3, #199	@ 0xc7
 8000646:	d90e      	bls.n	8000666 <SysTick_Handler+0x1da>
 8000648:	4b1f      	ldr	r3, [pc, #124]	@ (80006c8 <SysTick_Handler+0x23c>)
 800064a:	2200      	movs	r2, #0
 800064c:	601a      	str	r2, [r3, #0]
 800064e:	f000 fa4d 	bl	8000aec <buzz_start>
 8000652:	4b1e      	ldr	r3, [pc, #120]	@ (80006cc <SysTick_Handler+0x240>)
 8000654:	2201      	movs	r2, #1
 8000656:	701a      	strb	r2, [r3, #0]
 8000658:	4b1a      	ldr	r3, [pc, #104]	@ (80006c4 <SysTick_Handler+0x238>)
 800065a:	781b      	ldrb	r3, [r3, #0]
 800065c:	b2db      	uxtb	r3, r3
 800065e:	3b01      	subs	r3, #1
 8000660:	b2da      	uxtb	r2, r3
 8000662:	4b18      	ldr	r3, [pc, #96]	@ (80006c4 <SysTick_Handler+0x238>)
 8000664:	701a      	strb	r2, [r3, #0]
    }
  }

  /* UI */
  if (ui_dirty) { ui_dirty=false; ui_refresh(); }
 8000666:	4b0f      	ldr	r3, [pc, #60]	@ (80006a4 <SysTick_Handler+0x218>)
 8000668:	781b      	ldrb	r3, [r3, #0]
 800066a:	b2db      	uxtb	r3, r3
 800066c:	2b00      	cmp	r3, #0
 800066e:	d004      	beq.n	800067a <SysTick_Handler+0x1ee>
 8000670:	4b0c      	ldr	r3, [pc, #48]	@ (80006a4 <SysTick_Handler+0x218>)
 8000672:	2200      	movs	r2, #0
 8000674:	701a      	strb	r2, [r3, #0]
 8000676:	f000 fb01 	bl	8000c7c <ui_refresh>
}
 800067a:	46c0      	nop			@ (mov r8, r8)
 800067c:	46bd      	mov	sp, r7
 800067e:	bd80      	pop	{r7, pc}
 8000680:	20000090 	.word	0x20000090
 8000684:	200000d0 	.word	0x200000d0
 8000688:	200000ce 	.word	0x200000ce
 800068c:	00000fff 	.word	0x00000fff
 8000690:	2000000c 	.word	0x2000000c
 8000694:	20000094 	.word	0x20000094
 8000698:	00000554 	.word	0x00000554
 800069c:	20000001 	.word	0x20000001
 80006a0:	00000aa9 	.word	0x00000aa9
 80006a4:	20000002 	.word	0x20000002
 80006a8:	200000ac 	.word	0x200000ac
 80006ac:	200000b0 	.word	0x200000b0
 80006b0:	200000a4 	.word	0x200000a4
 80006b4:	200000a8 	.word	0x200000a8
 80006b8:	20000095 	.word	0x20000095
 80006bc:	200000a0 	.word	0x200000a0
 80006c0:	08002210 	.word	0x08002210
 80006c4:	200000b1 	.word	0x200000b1
 80006c8:	200000b4 	.word	0x200000b4
 80006cc:	200000b8 	.word	0x200000b8

080006d0 <clock_init>:

/* ===================== Init / HW ===================== */
static void clock_init(void)
{
 80006d0:	b580      	push	{r7, lr}
 80006d2:	af00      	add	r7, sp, #0
  RCC->CR |= RCC_CR_HSION; while(!(RCC->CR & RCC_CR_HSIRDY));
 80006d4:	4b0b      	ldr	r3, [pc, #44]	@ (8000704 <clock_init+0x34>)
 80006d6:	681a      	ldr	r2, [r3, #0]
 80006d8:	4b0a      	ldr	r3, [pc, #40]	@ (8000704 <clock_init+0x34>)
 80006da:	2101      	movs	r1, #1
 80006dc:	430a      	orrs	r2, r1
 80006de:	601a      	str	r2, [r3, #0]
 80006e0:	46c0      	nop			@ (mov r8, r8)
 80006e2:	4b08      	ldr	r3, [pc, #32]	@ (8000704 <clock_init+0x34>)
 80006e4:	681b      	ldr	r3, [r3, #0]
 80006e6:	2204      	movs	r2, #4
 80006e8:	4013      	ands	r3, r2
 80006ea:	d0fa      	beq.n	80006e2 <clock_init+0x12>
  RCC->CFGR = (RCC->CFGR & ~RCC_CFGR_SW) | RCC_CFGR_SW_HSI;
 80006ec:	4b05      	ldr	r3, [pc, #20]	@ (8000704 <clock_init+0x34>)
 80006ee:	68db      	ldr	r3, [r3, #12]
 80006f0:	2203      	movs	r2, #3
 80006f2:	4393      	bics	r3, r2
 80006f4:	001a      	movs	r2, r3
 80006f6:	4b03      	ldr	r3, [pc, #12]	@ (8000704 <clock_init+0x34>)
 80006f8:	2101      	movs	r1, #1
 80006fa:	430a      	orrs	r2, r1
 80006fc:	60da      	str	r2, [r3, #12]
}
 80006fe:	46c0      	nop			@ (mov r8, r8)
 8000700:	46bd      	mov	sp, r7
 8000702:	bd80      	pop	{r7, pc}
 8000704:	40021000 	.word	0x40021000

08000708 <gpio_init>:

static void gpio_init(void)
{
 8000708:	b580      	push	{r7, lr}
 800070a:	af00      	add	r7, sp, #0
  RCC->IOPENR |= RCC_IOPENR_GPIOAEN | RCC_IOPENR_GPIOBEN | RCC_IOPENR_GPIOCEN;
 800070c:	4b2a      	ldr	r3, [pc, #168]	@ (80007b8 <gpio_init+0xb0>)
 800070e:	6ada      	ldr	r2, [r3, #44]	@ 0x2c
 8000710:	4b29      	ldr	r3, [pc, #164]	@ (80007b8 <gpio_init+0xb0>)
 8000712:	2107      	movs	r1, #7
 8000714:	430a      	orrs	r2, r1
 8000716:	62da      	str	r2, [r3, #44]	@ 0x2c

  /* LEDs PC0..PC2 output */
  LED_PORT->MODER &= ~((3u<<(0*2))|(3u<<(1*2))|(3u<<(2*2)));
 8000718:	4b28      	ldr	r3, [pc, #160]	@ (80007bc <gpio_init+0xb4>)
 800071a:	681a      	ldr	r2, [r3, #0]
 800071c:	4b27      	ldr	r3, [pc, #156]	@ (80007bc <gpio_init+0xb4>)
 800071e:	213f      	movs	r1, #63	@ 0x3f
 8000720:	438a      	bics	r2, r1
 8000722:	601a      	str	r2, [r3, #0]
  LED_PORT->MODER |=  ((1u<<(0*2))|(1u<<(1*2))|(1u<<(2*2)));
 8000724:	4b25      	ldr	r3, [pc, #148]	@ (80007bc <gpio_init+0xb4>)
 8000726:	681a      	ldr	r2, [r3, #0]
 8000728:	4b24      	ldr	r3, [pc, #144]	@ (80007bc <gpio_init+0xb4>)
 800072a:	2115      	movs	r1, #21
 800072c:	430a      	orrs	r2, r1
 800072e:	601a      	str	r2, [r3, #0]
  set_leds(false,false,false);
 8000730:	2200      	movs	r2, #0
 8000732:	2100      	movs	r1, #0
 8000734:	2000      	movs	r0, #0
 8000736:	f000 f991 	bl	8000a5c <set_leds>

  /* Buzzer PA1 AF6 (TIM21_CH2) */
  BUZZ_PORT->MODER &= ~(3u<<(1*2));
 800073a:	23a0      	movs	r3, #160	@ 0xa0
 800073c:	05db      	lsls	r3, r3, #23
 800073e:	681a      	ldr	r2, [r3, #0]
 8000740:	23a0      	movs	r3, #160	@ 0xa0
 8000742:	05db      	lsls	r3, r3, #23
 8000744:	210c      	movs	r1, #12
 8000746:	438a      	bics	r2, r1
 8000748:	601a      	str	r2, [r3, #0]
  BUZZ_PORT->MODER |=  (2u<<(1*2));
 800074a:	23a0      	movs	r3, #160	@ 0xa0
 800074c:	05db      	lsls	r3, r3, #23
 800074e:	681a      	ldr	r2, [r3, #0]
 8000750:	23a0      	movs	r3, #160	@ 0xa0
 8000752:	05db      	lsls	r3, r3, #23
 8000754:	2108      	movs	r1, #8
 8000756:	430a      	orrs	r2, r1
 8000758:	601a      	str	r2, [r3, #0]
  GPIOA->AFR[0] &= ~(0xF<<(1*4));
 800075a:	23a0      	movs	r3, #160	@ 0xa0
 800075c:	05db      	lsls	r3, r3, #23
 800075e:	6a1a      	ldr	r2, [r3, #32]
 8000760:	23a0      	movs	r3, #160	@ 0xa0
 8000762:	05db      	lsls	r3, r3, #23
 8000764:	21f0      	movs	r1, #240	@ 0xf0
 8000766:	438a      	bics	r2, r1
 8000768:	621a      	str	r2, [r3, #32]
  GPIOA->AFR[0] |=  (6u<<(1*4));
 800076a:	23a0      	movs	r3, #160	@ 0xa0
 800076c:	05db      	lsls	r3, r3, #23
 800076e:	6a1a      	ldr	r2, [r3, #32]
 8000770:	23a0      	movs	r3, #160	@ 0xa0
 8000772:	05db      	lsls	r3, r3, #23
 8000774:	2160      	movs	r1, #96	@ 0x60
 8000776:	430a      	orrs	r2, r1
 8000778:	621a      	str	r2, [r3, #32]

#if (SLIDER_ENABLE)
  /* PA0 analógico (ADC_IN0) */
  GPIOA->MODER |= (3u<<(0*2));     // 11 = analog
 800077a:	23a0      	movs	r3, #160	@ 0xa0
 800077c:	05db      	lsls	r3, r3, #23
 800077e:	681a      	ldr	r2, [r3, #0]
 8000780:	23a0      	movs	r3, #160	@ 0xa0
 8000782:	05db      	lsls	r3, r3, #23
 8000784:	2103      	movs	r1, #3
 8000786:	430a      	orrs	r2, r1
 8000788:	601a      	str	r2, [r3, #0]
  GPIOA->PUPDR &= ~(3u<<(0*2));    // sin pull
 800078a:	23a0      	movs	r3, #160	@ 0xa0
 800078c:	05db      	lsls	r3, r3, #23
 800078e:	68da      	ldr	r2, [r3, #12]
 8000790:	23a0      	movs	r3, #160	@ 0xa0
 8000792:	05db      	lsls	r3, r3, #23
 8000794:	2103      	movs	r1, #3
 8000796:	438a      	bics	r2, r1
 8000798:	60da      	str	r2, [r3, #12]
#endif

  /* Botón B1 PC13: entrada (pulls externos de la Nucleo) */
  BTN_PORT->MODER &= ~(3u<<(13*2));      // input
 800079a:	4b08      	ldr	r3, [pc, #32]	@ (80007bc <gpio_init+0xb4>)
 800079c:	681a      	ldr	r2, [r3, #0]
 800079e:	4b07      	ldr	r3, [pc, #28]	@ (80007bc <gpio_init+0xb4>)
 80007a0:	4907      	ldr	r1, [pc, #28]	@ (80007c0 <gpio_init+0xb8>)
 80007a2:	400a      	ands	r2, r1
 80007a4:	601a      	str	r2, [r3, #0]
  BTN_PORT->PUPDR &= ~(3u<<(13*2));      // sin pull interno
 80007a6:	4b05      	ldr	r3, [pc, #20]	@ (80007bc <gpio_init+0xb4>)
 80007a8:	68da      	ldr	r2, [r3, #12]
 80007aa:	4b04      	ldr	r3, [pc, #16]	@ (80007bc <gpio_init+0xb4>)
 80007ac:	4904      	ldr	r1, [pc, #16]	@ (80007c0 <gpio_init+0xb8>)
 80007ae:	400a      	ands	r2, r1
 80007b0:	60da      	str	r2, [r3, #12]
}
 80007b2:	46c0      	nop			@ (mov r8, r8)
 80007b4:	46bd      	mov	sp, r7
 80007b6:	bd80      	pop	{r7, pc}
 80007b8:	40021000 	.word	0x40021000
 80007bc:	50000800 	.word	0x50000800
 80007c0:	f3ffffff 	.word	0xf3ffffff

080007c4 <i2c1_init_100k>:

static void i2c1_init_100k(void)
{
 80007c4:	b580      	push	{r7, lr}
 80007c6:	af00      	add	r7, sp, #0
  RCC->APB1ENR |= RCC_APB1ENR_I2C1EN;
 80007c8:	4b1e      	ldr	r3, [pc, #120]	@ (8000844 <i2c1_init_100k+0x80>)
 80007ca:	6b9a      	ldr	r2, [r3, #56]	@ 0x38
 80007cc:	4b1d      	ldr	r3, [pc, #116]	@ (8000844 <i2c1_init_100k+0x80>)
 80007ce:	2180      	movs	r1, #128	@ 0x80
 80007d0:	0389      	lsls	r1, r1, #14
 80007d2:	430a      	orrs	r2, r1
 80007d4:	639a      	str	r2, [r3, #56]	@ 0x38

  /* PB6/PB7 AF1 Open-Drain Pull-up */
  GPIOB->MODER &= ~((3u<<(6*2))|(3u<<(7*2)));
 80007d6:	4b1c      	ldr	r3, [pc, #112]	@ (8000848 <i2c1_init_100k+0x84>)
 80007d8:	681a      	ldr	r2, [r3, #0]
 80007da:	4b1b      	ldr	r3, [pc, #108]	@ (8000848 <i2c1_init_100k+0x84>)
 80007dc:	491b      	ldr	r1, [pc, #108]	@ (800084c <i2c1_init_100k+0x88>)
 80007de:	400a      	ands	r2, r1
 80007e0:	601a      	str	r2, [r3, #0]
  GPIOB->MODER |=  ((2u<<(6*2))|(2u<<(7*2)));
 80007e2:	4b19      	ldr	r3, [pc, #100]	@ (8000848 <i2c1_init_100k+0x84>)
 80007e4:	681a      	ldr	r2, [r3, #0]
 80007e6:	4b18      	ldr	r3, [pc, #96]	@ (8000848 <i2c1_init_100k+0x84>)
 80007e8:	21a0      	movs	r1, #160	@ 0xa0
 80007ea:	0209      	lsls	r1, r1, #8
 80007ec:	430a      	orrs	r2, r1
 80007ee:	601a      	str	r2, [r3, #0]
  GPIOB->OTYPER |=  ( (1u<<6) | (1u<<7) );
 80007f0:	4b15      	ldr	r3, [pc, #84]	@ (8000848 <i2c1_init_100k+0x84>)
 80007f2:	685a      	ldr	r2, [r3, #4]
 80007f4:	4b14      	ldr	r3, [pc, #80]	@ (8000848 <i2c1_init_100k+0x84>)
 80007f6:	21c0      	movs	r1, #192	@ 0xc0
 80007f8:	430a      	orrs	r2, r1
 80007fa:	605a      	str	r2, [r3, #4]
  GPIOB->OSPEEDR |= ((3u<<(6*2))|(3u<<(7*2)));
 80007fc:	4b12      	ldr	r3, [pc, #72]	@ (8000848 <i2c1_init_100k+0x84>)
 80007fe:	689a      	ldr	r2, [r3, #8]
 8000800:	4b11      	ldr	r3, [pc, #68]	@ (8000848 <i2c1_init_100k+0x84>)
 8000802:	21f0      	movs	r1, #240	@ 0xf0
 8000804:	0209      	lsls	r1, r1, #8
 8000806:	430a      	orrs	r2, r1
 8000808:	609a      	str	r2, [r3, #8]
  GPIOB->AFR[0] &= ~((0xF<<(6*4))|(0xF<<(7*4)));
 800080a:	4b0f      	ldr	r3, [pc, #60]	@ (8000848 <i2c1_init_100k+0x84>)
 800080c:	6a1a      	ldr	r2, [r3, #32]
 800080e:	4b0e      	ldr	r3, [pc, #56]	@ (8000848 <i2c1_init_100k+0x84>)
 8000810:	0212      	lsls	r2, r2, #8
 8000812:	0a12      	lsrs	r2, r2, #8
 8000814:	621a      	str	r2, [r3, #32]
  GPIOB->AFR[0] |=  ((1u<<(6*4))|(1u<<(7*4)));
 8000816:	4b0c      	ldr	r3, [pc, #48]	@ (8000848 <i2c1_init_100k+0x84>)
 8000818:	6a1a      	ldr	r2, [r3, #32]
 800081a:	4b0b      	ldr	r3, [pc, #44]	@ (8000848 <i2c1_init_100k+0x84>)
 800081c:	2188      	movs	r1, #136	@ 0x88
 800081e:	0549      	lsls	r1, r1, #21
 8000820:	430a      	orrs	r2, r1
 8000822:	621a      	str	r2, [r3, #32]

  I2C1->CR1 &= ~I2C_CR1_PE;
 8000824:	4b0a      	ldr	r3, [pc, #40]	@ (8000850 <i2c1_init_100k+0x8c>)
 8000826:	681a      	ldr	r2, [r3, #0]
 8000828:	4b09      	ldr	r3, [pc, #36]	@ (8000850 <i2c1_init_100k+0x8c>)
 800082a:	2101      	movs	r1, #1
 800082c:	438a      	bics	r2, r1
 800082e:	601a      	str	r2, [r3, #0]
  I2C1->TIMINGR = 0x00303D5B; // 100kHz @16MHz
 8000830:	4b07      	ldr	r3, [pc, #28]	@ (8000850 <i2c1_init_100k+0x8c>)
 8000832:	4a08      	ldr	r2, [pc, #32]	@ (8000854 <i2c1_init_100k+0x90>)
 8000834:	611a      	str	r2, [r3, #16]
  I2C1->CR1 = I2C_CR1_PE;
 8000836:	4b06      	ldr	r3, [pc, #24]	@ (8000850 <i2c1_init_100k+0x8c>)
 8000838:	2201      	movs	r2, #1
 800083a:	601a      	str	r2, [r3, #0]
}
 800083c:	46c0      	nop			@ (mov r8, r8)
 800083e:	46bd      	mov	sp, r7
 8000840:	bd80      	pop	{r7, pc}
 8000842:	46c0      	nop			@ (mov r8, r8)
 8000844:	40021000 	.word	0x40021000
 8000848:	50000400 	.word	0x50000400
 800084c:	ffff0fff 	.word	0xffff0fff
 8000850:	40005400 	.word	0x40005400
 8000854:	00303d5b 	.word	0x00303d5b

08000858 <buzz_timer_init>:

static void buzz_timer_init(void)
{
 8000858:	b580      	push	{r7, lr}
 800085a:	b084      	sub	sp, #16
 800085c:	af00      	add	r7, sp, #0
  RCC->APB2ENR |= RCC_APB2ENR_TIM21EN;
 800085e:	4b1b      	ldr	r3, [pc, #108]	@ (80008cc <buzz_timer_init+0x74>)
 8000860:	6b5a      	ldr	r2, [r3, #52]	@ 0x34
 8000862:	4b1a      	ldr	r3, [pc, #104]	@ (80008cc <buzz_timer_init+0x74>)
 8000864:	2104      	movs	r1, #4
 8000866:	430a      	orrs	r2, r1
 8000868:	635a      	str	r2, [r3, #52]	@ 0x34
  uint32_t pclk = 16000000;
 800086a:	4b19      	ldr	r3, [pc, #100]	@ (80008d0 <buzz_timer_init+0x78>)
 800086c:	60fb      	str	r3, [r7, #12]
  uint32_t toggles = BUZZ_TONE_HZ * 2;
 800086e:	23fa      	movs	r3, #250	@ 0xfa
 8000870:	011b      	lsls	r3, r3, #4
 8000872:	60bb      	str	r3, [r7, #8]
  uint32_t arr = (pclk / toggles) - 1;
 8000874:	68b9      	ldr	r1, [r7, #8]
 8000876:	68f8      	ldr	r0, [r7, #12]
 8000878:	f7ff fc58 	bl	800012c <__udivsi3>
 800087c:	0003      	movs	r3, r0
 800087e:	3b01      	subs	r3, #1
 8000880:	607b      	str	r3, [r7, #4]
  TIM21->PSC = 0;
 8000882:	4b14      	ldr	r3, [pc, #80]	@ (80008d4 <buzz_timer_init+0x7c>)
 8000884:	2200      	movs	r2, #0
 8000886:	629a      	str	r2, [r3, #40]	@ 0x28
  TIM21->ARR = arr;
 8000888:	4b12      	ldr	r3, [pc, #72]	@ (80008d4 <buzz_timer_init+0x7c>)
 800088a:	687a      	ldr	r2, [r7, #4]
 800088c:	62da      	str	r2, [r3, #44]	@ 0x2c
  TIM21->CCR2 = (arr+1)/2;
 800088e:	687b      	ldr	r3, [r7, #4]
 8000890:	1c5a      	adds	r2, r3, #1
 8000892:	4b10      	ldr	r3, [pc, #64]	@ (80008d4 <buzz_timer_init+0x7c>)
 8000894:	0852      	lsrs	r2, r2, #1
 8000896:	639a      	str	r2, [r3, #56]	@ 0x38
  TIM21->CCMR1 &= ~(0xFF00);
 8000898:	4b0e      	ldr	r3, [pc, #56]	@ (80008d4 <buzz_timer_init+0x7c>)
 800089a:	699a      	ldr	r2, [r3, #24]
 800089c:	4b0d      	ldr	r3, [pc, #52]	@ (80008d4 <buzz_timer_init+0x7c>)
 800089e:	490e      	ldr	r1, [pc, #56]	@ (80008d8 <buzz_timer_init+0x80>)
 80008a0:	400a      	ands	r2, r1
 80008a2:	619a      	str	r2, [r3, #24]
  TIM21->CCMR1 |= (6u<<12); // PWM1 CH2
 80008a4:	4b0b      	ldr	r3, [pc, #44]	@ (80008d4 <buzz_timer_init+0x7c>)
 80008a6:	699a      	ldr	r2, [r3, #24]
 80008a8:	4b0a      	ldr	r3, [pc, #40]	@ (80008d4 <buzz_timer_init+0x7c>)
 80008aa:	21c0      	movs	r1, #192	@ 0xc0
 80008ac:	01c9      	lsls	r1, r1, #7
 80008ae:	430a      	orrs	r2, r1
 80008b0:	619a      	str	r2, [r3, #24]
  TIM21->CCER  &= ~TIM_CCER_CC2E; // apagado al inicio
 80008b2:	4b08      	ldr	r3, [pc, #32]	@ (80008d4 <buzz_timer_init+0x7c>)
 80008b4:	6a1a      	ldr	r2, [r3, #32]
 80008b6:	4b07      	ldr	r3, [pc, #28]	@ (80008d4 <buzz_timer_init+0x7c>)
 80008b8:	2110      	movs	r1, #16
 80008ba:	438a      	bics	r2, r1
 80008bc:	621a      	str	r2, [r3, #32]
  TIM21->CR1    = TIM_CR1_CEN;
 80008be:	4b05      	ldr	r3, [pc, #20]	@ (80008d4 <buzz_timer_init+0x7c>)
 80008c0:	2201      	movs	r2, #1
 80008c2:	601a      	str	r2, [r3, #0]
}
 80008c4:	46c0      	nop			@ (mov r8, r8)
 80008c6:	46bd      	mov	sp, r7
 80008c8:	b004      	add	sp, #16
 80008ca:	bd80      	pop	{r7, pc}
 80008cc:	40021000 	.word	0x40021000
 80008d0:	00f42400 	.word	0x00f42400
 80008d4:	40010800 	.word	0x40010800
 80008d8:	ffff00ff 	.word	0xffff00ff

080008dc <servo_init_pb5>:

/* ===================== Servo (PB5 / TIM22_CH2 AF5) ===================== */
static void servo_init_pb5(void)
{
 80008dc:	b580      	push	{r7, lr}
 80008de:	af00      	add	r7, sp, #0
  /* Habilitar TIM22 y configurar PB5 en AF5 */
  RCC->APB2ENR |= RCC_APB2ENR_TIM22EN;
 80008e0:	4b39      	ldr	r3, [pc, #228]	@ (80009c8 <servo_init_pb5+0xec>)
 80008e2:	6b5a      	ldr	r2, [r3, #52]	@ 0x34
 80008e4:	4b38      	ldr	r3, [pc, #224]	@ (80009c8 <servo_init_pb5+0xec>)
 80008e6:	2120      	movs	r1, #32
 80008e8:	430a      	orrs	r2, r1
 80008ea:	635a      	str	r2, [r3, #52]	@ 0x34

  SERVO_PORT->MODER &= ~(3u<<(5*2));
 80008ec:	4b37      	ldr	r3, [pc, #220]	@ (80009cc <servo_init_pb5+0xf0>)
 80008ee:	681a      	ldr	r2, [r3, #0]
 80008f0:	4b36      	ldr	r3, [pc, #216]	@ (80009cc <servo_init_pb5+0xf0>)
 80008f2:	4937      	ldr	r1, [pc, #220]	@ (80009d0 <servo_init_pb5+0xf4>)
 80008f4:	400a      	ands	r2, r1
 80008f6:	601a      	str	r2, [r3, #0]
  SERVO_PORT->MODER |=  (2u<<(5*2)); // AF
 80008f8:	4b34      	ldr	r3, [pc, #208]	@ (80009cc <servo_init_pb5+0xf0>)
 80008fa:	681a      	ldr	r2, [r3, #0]
 80008fc:	4b33      	ldr	r3, [pc, #204]	@ (80009cc <servo_init_pb5+0xf0>)
 80008fe:	2180      	movs	r1, #128	@ 0x80
 8000900:	0109      	lsls	r1, r1, #4
 8000902:	430a      	orrs	r2, r1
 8000904:	601a      	str	r2, [r3, #0]
  SERVO_PORT->OTYPER &= ~(1u<<5);
 8000906:	4b31      	ldr	r3, [pc, #196]	@ (80009cc <servo_init_pb5+0xf0>)
 8000908:	685a      	ldr	r2, [r3, #4]
 800090a:	4b30      	ldr	r3, [pc, #192]	@ (80009cc <servo_init_pb5+0xf0>)
 800090c:	2120      	movs	r1, #32
 800090e:	438a      	bics	r2, r1
 8000910:	605a      	str	r2, [r3, #4]
  SERVO_PORT->OSPEEDR |= (3u<<(5*2));
 8000912:	4b2e      	ldr	r3, [pc, #184]	@ (80009cc <servo_init_pb5+0xf0>)
 8000914:	689a      	ldr	r2, [r3, #8]
 8000916:	4b2d      	ldr	r3, [pc, #180]	@ (80009cc <servo_init_pb5+0xf0>)
 8000918:	21c0      	movs	r1, #192	@ 0xc0
 800091a:	0109      	lsls	r1, r1, #4
 800091c:	430a      	orrs	r2, r1
 800091e:	609a      	str	r2, [r3, #8]
  SERVO_PORT->PUPDR &= ~(3u<<(5*2));
 8000920:	4b2a      	ldr	r3, [pc, #168]	@ (80009cc <servo_init_pb5+0xf0>)
 8000922:	68da      	ldr	r2, [r3, #12]
 8000924:	4b29      	ldr	r3, [pc, #164]	@ (80009cc <servo_init_pb5+0xf0>)
 8000926:	492a      	ldr	r1, [pc, #168]	@ (80009d0 <servo_init_pb5+0xf4>)
 8000928:	400a      	ands	r2, r1
 800092a:	60da      	str	r2, [r3, #12]
  GPIOB->AFR[0] &= ~(0xFu<<(5*4));
 800092c:	4b27      	ldr	r3, [pc, #156]	@ (80009cc <servo_init_pb5+0xf0>)
 800092e:	6a1a      	ldr	r2, [r3, #32]
 8000930:	4b26      	ldr	r3, [pc, #152]	@ (80009cc <servo_init_pb5+0xf0>)
 8000932:	4928      	ldr	r1, [pc, #160]	@ (80009d4 <servo_init_pb5+0xf8>)
 8000934:	400a      	ands	r2, r1
 8000936:	621a      	str	r2, [r3, #32]
  GPIOB->AFR[0] |=  ((SERVO_AF & 0xF)<<(5*4));
 8000938:	4b24      	ldr	r3, [pc, #144]	@ (80009cc <servo_init_pb5+0xf0>)
 800093a:	6a1a      	ldr	r2, [r3, #32]
 800093c:	4b23      	ldr	r3, [pc, #140]	@ (80009cc <servo_init_pb5+0xf0>)
 800093e:	21a0      	movs	r1, #160	@ 0xa0
 8000940:	03c9      	lsls	r1, r1, #15
 8000942:	430a      	orrs	r2, r1
 8000944:	621a      	str	r2, [r3, #32]

  /* PWM 50 Hz: PSC para 1 MHz, ARR para 20 ms */
  TIM22->CR1 = 0;
 8000946:	4b24      	ldr	r3, [pc, #144]	@ (80009d8 <servo_init_pb5+0xfc>)
 8000948:	2200      	movs	r2, #0
 800094a:	601a      	str	r2, [r3, #0]
  TIM22->PSC = SERVO_TIM_PSC;
 800094c:	4b22      	ldr	r3, [pc, #136]	@ (80009d8 <servo_init_pb5+0xfc>)
 800094e:	220f      	movs	r2, #15
 8000950:	629a      	str	r2, [r3, #40]	@ 0x28
  TIM22->ARR = SERVO_TIM_ARR;
 8000952:	4b21      	ldr	r3, [pc, #132]	@ (80009d8 <servo_init_pb5+0xfc>)
 8000954:	4a21      	ldr	r2, [pc, #132]	@ (80009dc <servo_init_pb5+0x100>)
 8000956:	62da      	str	r2, [r3, #44]	@ 0x2c

  /* Canal 2 en PWM1 */
  TIM22->CCMR1 &= ~(0xFF00);
 8000958:	4b1f      	ldr	r3, [pc, #124]	@ (80009d8 <servo_init_pb5+0xfc>)
 800095a:	699a      	ldr	r2, [r3, #24]
 800095c:	4b1e      	ldr	r3, [pc, #120]	@ (80009d8 <servo_init_pb5+0xfc>)
 800095e:	4920      	ldr	r1, [pc, #128]	@ (80009e0 <servo_init_pb5+0x104>)
 8000960:	400a      	ands	r2, r1
 8000962:	619a      	str	r2, [r3, #24]
  TIM22->CCMR1 |= (6u<<12);           // OC2M = PWM1
 8000964:	4b1c      	ldr	r3, [pc, #112]	@ (80009d8 <servo_init_pb5+0xfc>)
 8000966:	699a      	ldr	r2, [r3, #24]
 8000968:	4b1b      	ldr	r3, [pc, #108]	@ (80009d8 <servo_init_pb5+0xfc>)
 800096a:	21c0      	movs	r1, #192	@ 0xc0
 800096c:	01c9      	lsls	r1, r1, #7
 800096e:	430a      	orrs	r2, r1
 8000970:	619a      	str	r2, [r3, #24]
  TIM22->CCMR1 |= TIM_CCMR1_OC2PE;    // preload
 8000972:	4b19      	ldr	r3, [pc, #100]	@ (80009d8 <servo_init_pb5+0xfc>)
 8000974:	699a      	ldr	r2, [r3, #24]
 8000976:	4b18      	ldr	r3, [pc, #96]	@ (80009d8 <servo_init_pb5+0xfc>)
 8000978:	2180      	movs	r1, #128	@ 0x80
 800097a:	0109      	lsls	r1, r1, #4
 800097c:	430a      	orrs	r2, r1
 800097e:	619a      	str	r2, [r3, #24]
  TIM22->CCER  &= ~TIM_CCER_CC2P;     // polaridad normal
 8000980:	4b15      	ldr	r3, [pc, #84]	@ (80009d8 <servo_init_pb5+0xfc>)
 8000982:	6a1a      	ldr	r2, [r3, #32]
 8000984:	4b14      	ldr	r3, [pc, #80]	@ (80009d8 <servo_init_pb5+0xfc>)
 8000986:	2120      	movs	r1, #32
 8000988:	438a      	bics	r2, r1
 800098a:	621a      	str	r2, [r3, #32]
  TIM22->CCR2  = SERVO_US_STOP;       // detenido
 800098c:	4b12      	ldr	r3, [pc, #72]	@ (80009d8 <servo_init_pb5+0xfc>)
 800098e:	4a15      	ldr	r2, [pc, #84]	@ (80009e4 <servo_init_pb5+0x108>)
 8000990:	639a      	str	r2, [r3, #56]	@ 0x38

  TIM22->CR1 |= TIM_CR1_ARPE;         // auto-reload preload
 8000992:	4b11      	ldr	r3, [pc, #68]	@ (80009d8 <servo_init_pb5+0xfc>)
 8000994:	681a      	ldr	r2, [r3, #0]
 8000996:	4b10      	ldr	r3, [pc, #64]	@ (80009d8 <servo_init_pb5+0xfc>)
 8000998:	2180      	movs	r1, #128	@ 0x80
 800099a:	430a      	orrs	r2, r1
 800099c:	601a      	str	r2, [r3, #0]
  TIM22->EGR |= TIM_EGR_UG;           // update
 800099e:	4b0e      	ldr	r3, [pc, #56]	@ (80009d8 <servo_init_pb5+0xfc>)
 80009a0:	695a      	ldr	r2, [r3, #20]
 80009a2:	4b0d      	ldr	r3, [pc, #52]	@ (80009d8 <servo_init_pb5+0xfc>)
 80009a4:	2101      	movs	r1, #1
 80009a6:	430a      	orrs	r2, r1
 80009a8:	615a      	str	r2, [r3, #20]

  TIM22->CCER |= TIM_CCER_CC2E;       // habilitar salida CH2
 80009aa:	4b0b      	ldr	r3, [pc, #44]	@ (80009d8 <servo_init_pb5+0xfc>)
 80009ac:	6a1a      	ldr	r2, [r3, #32]
 80009ae:	4b0a      	ldr	r3, [pc, #40]	@ (80009d8 <servo_init_pb5+0xfc>)
 80009b0:	2110      	movs	r1, #16
 80009b2:	430a      	orrs	r2, r1
 80009b4:	621a      	str	r2, [r3, #32]
  TIM22->CR1  |= TIM_CR1_CEN;         // arrancar timer (90°-180°)
 80009b6:	4b08      	ldr	r3, [pc, #32]	@ (80009d8 <servo_init_pb5+0xfc>)
 80009b8:	681a      	ldr	r2, [r3, #0]
 80009ba:	4b07      	ldr	r3, [pc, #28]	@ (80009d8 <servo_init_pb5+0xfc>)
 80009bc:	2101      	movs	r1, #1
 80009be:	430a      	orrs	r2, r1
 80009c0:	601a      	str	r2, [r3, #0]
}
 80009c2:	46c0      	nop			@ (mov r8, r8)
 80009c4:	46bd      	mov	sp, r7
 80009c6:	bd80      	pop	{r7, pc}
 80009c8:	40021000 	.word	0x40021000
 80009cc:	50000400 	.word	0x50000400
 80009d0:	fffff3ff 	.word	0xfffff3ff
 80009d4:	ff0fffff 	.word	0xff0fffff
 80009d8:	40011400 	.word	0x40011400
 80009dc:	00004e1f 	.word	0x00004e1f
 80009e0:	ffff00ff 	.word	0xffff00ff
 80009e4:	000005dc 	.word	0x000005dc

080009e8 <servo_write_us>:

static void servo_write_us(uint16_t usec)
{
 80009e8:	b580      	push	{r7, lr}
 80009ea:	b082      	sub	sp, #8
 80009ec:	af00      	add	r7, sp, #0
 80009ee:	0002      	movs	r2, r0
 80009f0:	1dbb      	adds	r3, r7, #6
 80009f2:	801a      	strh	r2, [r3, #0]
  if (usec < SERVO_US_MIN) usec = SERVO_US_MIN;
 80009f4:	1dbb      	adds	r3, r7, #6
 80009f6:	881a      	ldrh	r2, [r3, #0]
 80009f8:	23fa      	movs	r3, #250	@ 0xfa
 80009fa:	009b      	lsls	r3, r3, #2
 80009fc:	429a      	cmp	r2, r3
 80009fe:	d203      	bcs.n	8000a08 <servo_write_us+0x20>
 8000a00:	1dbb      	adds	r3, r7, #6
 8000a02:	22fa      	movs	r2, #250	@ 0xfa
 8000a04:	0092      	lsls	r2, r2, #2
 8000a06:	801a      	strh	r2, [r3, #0]
  if (usec > SERVO_US_MAX) usec = SERVO_US_MAX;
 8000a08:	1dbb      	adds	r3, r7, #6
 8000a0a:	881a      	ldrh	r2, [r3, #0]
 8000a0c:	23fa      	movs	r3, #250	@ 0xfa
 8000a0e:	00db      	lsls	r3, r3, #3
 8000a10:	429a      	cmp	r2, r3
 8000a12:	d903      	bls.n	8000a1c <servo_write_us+0x34>
 8000a14:	1dbb      	adds	r3, r7, #6
 8000a16:	22fa      	movs	r2, #250	@ 0xfa
 8000a18:	00d2      	lsls	r2, r2, #3
 8000a1a:	801a      	strh	r2, [r3, #0]
  TIM22->CCR2 = usec;   // con PSC=16-1 => 1 tick = 1 us
 8000a1c:	4b03      	ldr	r3, [pc, #12]	@ (8000a2c <servo_write_us+0x44>)
 8000a1e:	1dba      	adds	r2, r7, #6
 8000a20:	8812      	ldrh	r2, [r2, #0]
 8000a22:	639a      	str	r2, [r3, #56]	@ 0x38
}
 8000a24:	46c0      	nop			@ (mov r8, r8)
 8000a26:	46bd      	mov	sp, r7
 8000a28:	b002      	add	sp, #8
 8000a2a:	bd80      	pop	{r7, pc}
 8000a2c:	40011400 	.word	0x40011400

08000a30 <servo_start_run>:

static void servo_start_run(void)
{
 8000a30:	b580      	push	{r7, lr}
 8000a32:	af00      	add	r7, sp, #0
  /* Arranca giro continuo (ajusta SERVO_RUN_US para invertir sentido/velocidad) */
  servo_write_us(SERVO_RUN_US);
 8000a34:	23fa      	movs	r3, #250	@ 0xfa
 8000a36:	00db      	lsls	r3, r3, #3
 8000a38:	0018      	movs	r0, r3
 8000a3a:	f7ff ffd5 	bl	80009e8 <servo_write_us>
}
 8000a3e:	46c0      	nop			@ (mov r8, r8)
 8000a40:	46bd      	mov	sp, r7
 8000a42:	bd80      	pop	{r7, pc}

08000a44 <servo_stop>:

static void servo_stop(void)
{
 8000a44:	b580      	push	{r7, lr}
 8000a46:	af00      	add	r7, sp, #0
  servo_write_us(SERVO_US_STOP);
 8000a48:	4b03      	ldr	r3, [pc, #12]	@ (8000a58 <servo_stop+0x14>)
 8000a4a:	0018      	movs	r0, r3
 8000a4c:	f7ff ffcc 	bl	80009e8 <servo_write_us>
}
 8000a50:	46c0      	nop			@ (mov r8, r8)
 8000a52:	46bd      	mov	sp, r7
 8000a54:	bd80      	pop	{r7, pc}
 8000a56:	46c0      	nop			@ (mov r8, r8)
 8000a58:	000005dc 	.word	0x000005dc

08000a5c <set_leds>:

/* ===================== Helpers ===================== */
static void set_leds(bool r, bool y, bool b)
{
 8000a5c:	b590      	push	{r4, r7, lr}
 8000a5e:	b083      	sub	sp, #12
 8000a60:	af00      	add	r7, sp, #0
 8000a62:	0004      	movs	r4, r0
 8000a64:	0008      	movs	r0, r1
 8000a66:	0011      	movs	r1, r2
 8000a68:	1dfb      	adds	r3, r7, #7
 8000a6a:	1c22      	adds	r2, r4, #0
 8000a6c:	701a      	strb	r2, [r3, #0]
 8000a6e:	1dbb      	adds	r3, r7, #6
 8000a70:	1c02      	adds	r2, r0, #0
 8000a72:	701a      	strb	r2, [r3, #0]
 8000a74:	1d7b      	adds	r3, r7, #5
 8000a76:	1c0a      	adds	r2, r1, #0
 8000a78:	701a      	strb	r2, [r3, #0]
  if (r) LED_PORT->ODR |= LED_R_PIN; else LED_PORT->ODR &= ~LED_R_PIN;
 8000a7a:	1dfb      	adds	r3, r7, #7
 8000a7c:	781b      	ldrb	r3, [r3, #0]
 8000a7e:	2b00      	cmp	r3, #0
 8000a80:	d006      	beq.n	8000a90 <set_leds+0x34>
 8000a82:	4b19      	ldr	r3, [pc, #100]	@ (8000ae8 <set_leds+0x8c>)
 8000a84:	695a      	ldr	r2, [r3, #20]
 8000a86:	4b18      	ldr	r3, [pc, #96]	@ (8000ae8 <set_leds+0x8c>)
 8000a88:	2101      	movs	r1, #1
 8000a8a:	430a      	orrs	r2, r1
 8000a8c:	615a      	str	r2, [r3, #20]
 8000a8e:	e005      	b.n	8000a9c <set_leds+0x40>
 8000a90:	4b15      	ldr	r3, [pc, #84]	@ (8000ae8 <set_leds+0x8c>)
 8000a92:	695a      	ldr	r2, [r3, #20]
 8000a94:	4b14      	ldr	r3, [pc, #80]	@ (8000ae8 <set_leds+0x8c>)
 8000a96:	2101      	movs	r1, #1
 8000a98:	438a      	bics	r2, r1
 8000a9a:	615a      	str	r2, [r3, #20]
  if (y) LED_PORT->ODR |= LED_Y_PIN; else LED_PORT->ODR &= ~LED_Y_PIN;
 8000a9c:	1dbb      	adds	r3, r7, #6
 8000a9e:	781b      	ldrb	r3, [r3, #0]
 8000aa0:	2b00      	cmp	r3, #0
 8000aa2:	d006      	beq.n	8000ab2 <set_leds+0x56>
 8000aa4:	4b10      	ldr	r3, [pc, #64]	@ (8000ae8 <set_leds+0x8c>)
 8000aa6:	695a      	ldr	r2, [r3, #20]
 8000aa8:	4b0f      	ldr	r3, [pc, #60]	@ (8000ae8 <set_leds+0x8c>)
 8000aaa:	2102      	movs	r1, #2
 8000aac:	430a      	orrs	r2, r1
 8000aae:	615a      	str	r2, [r3, #20]
 8000ab0:	e005      	b.n	8000abe <set_leds+0x62>
 8000ab2:	4b0d      	ldr	r3, [pc, #52]	@ (8000ae8 <set_leds+0x8c>)
 8000ab4:	695a      	ldr	r2, [r3, #20]
 8000ab6:	4b0c      	ldr	r3, [pc, #48]	@ (8000ae8 <set_leds+0x8c>)
 8000ab8:	2102      	movs	r1, #2
 8000aba:	438a      	bics	r2, r1
 8000abc:	615a      	str	r2, [r3, #20]
  if (b) LED_PORT->ODR |= LED_B_PIN; else LED_PORT->ODR &= ~LED_B_PIN;
 8000abe:	1d7b      	adds	r3, r7, #5
 8000ac0:	781b      	ldrb	r3, [r3, #0]
 8000ac2:	2b00      	cmp	r3, #0
 8000ac4:	d006      	beq.n	8000ad4 <set_leds+0x78>
 8000ac6:	4b08      	ldr	r3, [pc, #32]	@ (8000ae8 <set_leds+0x8c>)
 8000ac8:	695a      	ldr	r2, [r3, #20]
 8000aca:	4b07      	ldr	r3, [pc, #28]	@ (8000ae8 <set_leds+0x8c>)
 8000acc:	2104      	movs	r1, #4
 8000ace:	430a      	orrs	r2, r1
 8000ad0:	615a      	str	r2, [r3, #20]
}
 8000ad2:	e005      	b.n	8000ae0 <set_leds+0x84>
  if (b) LED_PORT->ODR |= LED_B_PIN; else LED_PORT->ODR &= ~LED_B_PIN;
 8000ad4:	4b04      	ldr	r3, [pc, #16]	@ (8000ae8 <set_leds+0x8c>)
 8000ad6:	695a      	ldr	r2, [r3, #20]
 8000ad8:	4b03      	ldr	r3, [pc, #12]	@ (8000ae8 <set_leds+0x8c>)
 8000ada:	2104      	movs	r1, #4
 8000adc:	438a      	bics	r2, r1
 8000ade:	615a      	str	r2, [r3, #20]
}
 8000ae0:	46c0      	nop			@ (mov r8, r8)
 8000ae2:	46bd      	mov	sp, r7
 8000ae4:	b003      	add	sp, #12
 8000ae6:	bd90      	pop	{r4, r7, pc}
 8000ae8:	50000800 	.word	0x50000800

08000aec <buzz_start>:

static void buzz_start(void) { TIM21->CCER |= TIM_CCER_CC2E; }
 8000aec:	b580      	push	{r7, lr}
 8000aee:	af00      	add	r7, sp, #0
 8000af0:	4b04      	ldr	r3, [pc, #16]	@ (8000b04 <buzz_start+0x18>)
 8000af2:	6a1a      	ldr	r2, [r3, #32]
 8000af4:	4b03      	ldr	r3, [pc, #12]	@ (8000b04 <buzz_start+0x18>)
 8000af6:	2110      	movs	r1, #16
 8000af8:	430a      	orrs	r2, r1
 8000afa:	621a      	str	r2, [r3, #32]
 8000afc:	46c0      	nop			@ (mov r8, r8)
 8000afe:	46bd      	mov	sp, r7
 8000b00:	bd80      	pop	{r7, pc}
 8000b02:	46c0      	nop			@ (mov r8, r8)
 8000b04:	40010800 	.word	0x40010800

08000b08 <buzz_stop>:
static void buzz_stop(void)  { TIM21->CCER &= ~TIM_CCER_CC2E; }
 8000b08:	b580      	push	{r7, lr}
 8000b0a:	af00      	add	r7, sp, #0
 8000b0c:	4b04      	ldr	r3, [pc, #16]	@ (8000b20 <buzz_stop+0x18>)
 8000b0e:	6a1a      	ldr	r2, [r3, #32]
 8000b10:	4b03      	ldr	r3, [pc, #12]	@ (8000b20 <buzz_stop+0x18>)
 8000b12:	2110      	movs	r1, #16
 8000b14:	438a      	bics	r2, r1
 8000b16:	621a      	str	r2, [r3, #32]
 8000b18:	46c0      	nop			@ (mov r8, r8)
 8000b1a:	46bd      	mov	sp, r7
 8000b1c:	bd80      	pop	{r7, pc}
 8000b1e:	46c0      	nop			@ (mov r8, r8)
 8000b20:	40010800 	.word	0x40010800

08000b24 <buzz_schedule_2>:
static void buzz_schedule_2(void) { buzz_beeps_left=2; buzz_phase_ms=0; buzz_on=false; }
 8000b24:	b580      	push	{r7, lr}
 8000b26:	af00      	add	r7, sp, #0
 8000b28:	4b05      	ldr	r3, [pc, #20]	@ (8000b40 <buzz_schedule_2+0x1c>)
 8000b2a:	2202      	movs	r2, #2
 8000b2c:	701a      	strb	r2, [r3, #0]
 8000b2e:	4b05      	ldr	r3, [pc, #20]	@ (8000b44 <buzz_schedule_2+0x20>)
 8000b30:	2200      	movs	r2, #0
 8000b32:	601a      	str	r2, [r3, #0]
 8000b34:	4b04      	ldr	r3, [pc, #16]	@ (8000b48 <buzz_schedule_2+0x24>)
 8000b36:	2200      	movs	r2, #0
 8000b38:	701a      	strb	r2, [r3, #0]
 8000b3a:	46c0      	nop			@ (mov r8, r8)
 8000b3c:	46bd      	mov	sp, r7
 8000b3e:	bd80      	pop	{r7, pc}
 8000b40:	200000b1 	.word	0x200000b1
 8000b44:	200000b4 	.word	0x200000b4
 8000b48:	200000b8 	.word	0x200000b8

08000b4c <start_bebida>:

/* === Inicio de bebida === */
static void start_bebida(uint8_t b)
{
 8000b4c:	b580      	push	{r7, lr}
 8000b4e:	b084      	sub	sp, #16
 8000b50:	af00      	add	r7, sp, #0
 8000b52:	0002      	movs	r2, r0
 8000b54:	1dfb      	adds	r3, r7, #7
 8000b56:	701a      	strb	r2, [r3, #0]
  switch(b) {
 8000b58:	1dfb      	adds	r3, r7, #7
 8000b5a:	781b      	ldrb	r3, [r3, #0]
 8000b5c:	2b04      	cmp	r3, #4
 8000b5e:	d014      	beq.n	8000b8a <start_bebida+0x3e>
 8000b60:	dc17      	bgt.n	8000b92 <start_bebida+0x46>
 8000b62:	2b03      	cmp	r3, #3
 8000b64:	d00d      	beq.n	8000b82 <start_bebida+0x36>
 8000b66:	dc14      	bgt.n	8000b92 <start_bebida+0x46>
 8000b68:	2b01      	cmp	r3, #1
 8000b6a:	d002      	beq.n	8000b72 <start_bebida+0x26>
 8000b6c:	2b02      	cmp	r3, #2
 8000b6e:	d004      	beq.n	8000b7a <start_bebida+0x2e>
 8000b70:	e00f      	b.n	8000b92 <start_bebida+0x46>
    case 1: t_total_ms = T_CAPUCHINO_MS; break;
 8000b72:	4b26      	ldr	r3, [pc, #152]	@ (8000c0c <start_bebida+0xc0>)
 8000b74:	4a26      	ldr	r2, [pc, #152]	@ (8000c10 <start_bebida+0xc4>)
 8000b76:	601a      	str	r2, [r3, #0]
 8000b78:	e00f      	b.n	8000b9a <start_bebida+0x4e>
    case 2: t_total_ms = T_EXPRESSO_MS;  break;
 8000b7a:	4b24      	ldr	r3, [pc, #144]	@ (8000c0c <start_bebida+0xc0>)
 8000b7c:	4a25      	ldr	r2, [pc, #148]	@ (8000c14 <start_bebida+0xc8>)
 8000b7e:	601a      	str	r2, [r3, #0]
 8000b80:	e00b      	b.n	8000b9a <start_bebida+0x4e>
    case 3: t_total_ms = T_LATE_MS;      break;
 8000b82:	4b22      	ldr	r3, [pc, #136]	@ (8000c0c <start_bebida+0xc0>)
 8000b84:	4a24      	ldr	r2, [pc, #144]	@ (8000c18 <start_bebida+0xcc>)
 8000b86:	601a      	str	r2, [r3, #0]
 8000b88:	e007      	b.n	8000b9a <start_bebida+0x4e>
    case 4: t_total_ms = T_AMERICANO_MS; break;
 8000b8a:	4b20      	ldr	r3, [pc, #128]	@ (8000c0c <start_bebida+0xc0>)
 8000b8c:	4a23      	ldr	r2, [pc, #140]	@ (8000c1c <start_bebida+0xd0>)
 8000b8e:	601a      	str	r2, [r3, #0]
 8000b90:	e003      	b.n	8000b9a <start_bebida+0x4e>
    default: t_total_ms = 0; break;
 8000b92:	4b1e      	ldr	r3, [pc, #120]	@ (8000c0c <start_bebida+0xc0>)
 8000b94:	2200      	movs	r2, #0
 8000b96:	601a      	str	r2, [r3, #0]
 8000b98:	46c0      	nop			@ (mov r8, r8)
  }

  /* Tamaño según S/M/L (definido por slider) */
  uint32_t pct = (size_sel==1) ? SZ_PCT_P :
 8000b9a:	4b21      	ldr	r3, [pc, #132]	@ (8000c20 <start_bebida+0xd4>)
 8000b9c:	781b      	ldrb	r3, [r3, #0]
 8000b9e:	b2db      	uxtb	r3, r3
 8000ba0:	2b01      	cmp	r3, #1
 8000ba2:	d008      	beq.n	8000bb6 <start_bebida+0x6a>
                 (size_sel==3) ? SZ_PCT_G : SZ_PCT_M;
 8000ba4:	4b1e      	ldr	r3, [pc, #120]	@ (8000c20 <start_bebida+0xd4>)
 8000ba6:	781b      	ldrb	r3, [r3, #0]
 8000ba8:	b2db      	uxtb	r3, r3
  uint32_t pct = (size_sel==1) ? SZ_PCT_P :
 8000baa:	2b03      	cmp	r3, #3
 8000bac:	d101      	bne.n	8000bb2 <start_bebida+0x66>
 8000bae:	2382      	movs	r3, #130	@ 0x82
 8000bb0:	e002      	b.n	8000bb8 <start_bebida+0x6c>
 8000bb2:	2364      	movs	r3, #100	@ 0x64
 8000bb4:	e000      	b.n	8000bb8 <start_bebida+0x6c>
 8000bb6:	2350      	movs	r3, #80	@ 0x50
 8000bb8:	60fb      	str	r3, [r7, #12]

  t_total_ms = (t_total_ms * pct) / 100;
 8000bba:	4b14      	ldr	r3, [pc, #80]	@ (8000c0c <start_bebida+0xc0>)
 8000bbc:	681b      	ldr	r3, [r3, #0]
 8000bbe:	68fa      	ldr	r2, [r7, #12]
 8000bc0:	4353      	muls	r3, r2
 8000bc2:	2164      	movs	r1, #100	@ 0x64
 8000bc4:	0018      	movs	r0, r3
 8000bc6:	f7ff fab1 	bl	800012c <__udivsi3>
 8000bca:	0003      	movs	r3, r0
 8000bcc:	001a      	movs	r2, r3
 8000bce:	4b0f      	ldr	r3, [pc, #60]	@ (8000c0c <start_bebida+0xc0>)
 8000bd0:	601a      	str	r2, [r3, #0]

  t_phase_ms = t_total_ms / 3;
 8000bd2:	4b0e      	ldr	r3, [pc, #56]	@ (8000c0c <start_bebida+0xc0>)
 8000bd4:	681b      	ldr	r3, [r3, #0]
 8000bd6:	2103      	movs	r1, #3
 8000bd8:	0018      	movs	r0, r3
 8000bda:	f7ff faa7 	bl	800012c <__udivsi3>
 8000bde:	0003      	movs	r3, r0
 8000be0:	001a      	movs	r2, r3
 8000be2:	4b10      	ldr	r3, [pc, #64]	@ (8000c24 <start_bebida+0xd8>)
 8000be4:	601a      	str	r2, [r3, #0]
  t_rem_ms = t_total_ms;
 8000be6:	4b09      	ldr	r3, [pc, #36]	@ (8000c0c <start_bebida+0xc0>)
 8000be8:	681a      	ldr	r2, [r3, #0]
 8000bea:	4b0f      	ldr	r3, [pc, #60]	@ (8000c28 <start_bebida+0xdc>)
 8000bec:	601a      	str	r2, [r3, #0]
  t_phase_rem_ms = t_phase_ms;
 8000bee:	4b0d      	ldr	r3, [pc, #52]	@ (8000c24 <start_bebida+0xd8>)
 8000bf0:	681a      	ldr	r2, [r3, #0]
 8000bf2:	4b0e      	ldr	r3, [pc, #56]	@ (8000c2c <start_bebida+0xe0>)
 8000bf4:	601a      	str	r2, [r3, #0]
  phase = PH1;
 8000bf6:	4b0e      	ldr	r3, [pc, #56]	@ (8000c30 <start_bebida+0xe4>)
 8000bf8:	2200      	movs	r2, #0
 8000bfa:	701a      	strb	r2, [r3, #0]
  apply_phase_outputs();
 8000bfc:	f000 f81a 	bl	8000c34 <apply_phase_outputs>

  /* >>> Arrancar servo al iniciar café <<< */
  servo_start_run();
 8000c00:	f7ff ff16 	bl	8000a30 <servo_start_run>
}
 8000c04:	46c0      	nop			@ (mov r8, r8)
 8000c06:	46bd      	mov	sp, r7
 8000c08:	b004      	add	sp, #16
 8000c0a:	bd80      	pop	{r7, pc}
 8000c0c:	2000009c 	.word	0x2000009c
 8000c10:	0000ea60 	.word	0x0000ea60
 8000c14:	00007530 	.word	0x00007530
 8000c18:	00013880 	.word	0x00013880
 8000c1c:	0000afc8 	.word	0x0000afc8
 8000c20:	20000001 	.word	0x20000001
 8000c24:	200000a0 	.word	0x200000a0
 8000c28:	200000a4 	.word	0x200000a4
 8000c2c:	200000a8 	.word	0x200000a8
 8000c30:	20000095 	.word	0x20000095

08000c34 <apply_phase_outputs>:

/* Indicadores por fase (LEDs); el servo gira todo el tiempo en APP_RUN */
static void apply_phase_outputs(void)
{
 8000c34:	b580      	push	{r7, lr}
 8000c36:	af00      	add	r7, sp, #0
  switch(phase) {
 8000c38:	4b0f      	ldr	r3, [pc, #60]	@ (8000c78 <apply_phase_outputs+0x44>)
 8000c3a:	781b      	ldrb	r3, [r3, #0]
 8000c3c:	b2db      	uxtb	r3, r3
 8000c3e:	2b02      	cmp	r3, #2
 8000c40:	d011      	beq.n	8000c66 <apply_phase_outputs+0x32>
 8000c42:	dc16      	bgt.n	8000c72 <apply_phase_outputs+0x3e>
 8000c44:	2b00      	cmp	r3, #0
 8000c46:	d002      	beq.n	8000c4e <apply_phase_outputs+0x1a>
 8000c48:	2b01      	cmp	r3, #1
 8000c4a:	d006      	beq.n	8000c5a <apply_phase_outputs+0x26>
      break;
    case PH3: // Sirviendo
      set_leds(false,false,true);
      break;
  }
}
 8000c4c:	e011      	b.n	8000c72 <apply_phase_outputs+0x3e>
      set_leds(true,false,false);
 8000c4e:	2200      	movs	r2, #0
 8000c50:	2100      	movs	r1, #0
 8000c52:	2001      	movs	r0, #1
 8000c54:	f7ff ff02 	bl	8000a5c <set_leds>
      break;
 8000c58:	e00b      	b.n	8000c72 <apply_phase_outputs+0x3e>
      set_leds(false,true,false);
 8000c5a:	2200      	movs	r2, #0
 8000c5c:	2101      	movs	r1, #1
 8000c5e:	2000      	movs	r0, #0
 8000c60:	f7ff fefc 	bl	8000a5c <set_leds>
      break;
 8000c64:	e005      	b.n	8000c72 <apply_phase_outputs+0x3e>
      set_leds(false,false,true);
 8000c66:	2201      	movs	r2, #1
 8000c68:	2100      	movs	r1, #0
 8000c6a:	2000      	movs	r0, #0
 8000c6c:	f7ff fef6 	bl	8000a5c <set_leds>
      break;
 8000c70:	46c0      	nop			@ (mov r8, r8)
}
 8000c72:	46c0      	nop			@ (mov r8, r8)
 8000c74:	46bd      	mov	sp, r7
 8000c76:	bd80      	pop	{r7, pc}
 8000c78:	20000095 	.word	0x20000095

08000c7c <ui_refresh>:

static void ui_refresh(void)
{
 8000c7c:	b590      	push	{r4, r7, lr}
 8000c7e:	b09f      	sub	sp, #124	@ 0x7c
 8000c80:	af02      	add	r7, sp, #8
  bool first_draw_of_state = (app != prev_app);
 8000c82:	4b89      	ldr	r3, [pc, #548]	@ (8000ea8 <ui_refresh+0x22c>)
 8000c84:	781b      	ldrb	r3, [r3, #0]
 8000c86:	b2d9      	uxtb	r1, r3
 8000c88:	4b88      	ldr	r3, [pc, #544]	@ (8000eac <ui_refresh+0x230>)
 8000c8a:	781a      	ldrb	r2, [r3, #0]
 8000c8c:	2067      	movs	r0, #103	@ 0x67
 8000c8e:	183b      	adds	r3, r7, r0
 8000c90:	1a8a      	subs	r2, r1, r2
 8000c92:	1e51      	subs	r1, r2, #1
 8000c94:	418a      	sbcs	r2, r1
 8000c96:	701a      	strb	r2, [r3, #0]
  if (first_draw_of_state) { lcd_clear(); prev_app = app; }
 8000c98:	183b      	adds	r3, r7, r0
 8000c9a:	781b      	ldrb	r3, [r3, #0]
 8000c9c:	2b00      	cmp	r3, #0
 8000c9e:	d006      	beq.n	8000cae <ui_refresh+0x32>
 8000ca0:	f000 fab4 	bl	800120c <lcd_clear>
 8000ca4:	4b80      	ldr	r3, [pc, #512]	@ (8000ea8 <ui_refresh+0x22c>)
 8000ca6:	781b      	ldrb	r3, [r3, #0]
 8000ca8:	b2da      	uxtb	r2, r3
 8000caa:	4b80      	ldr	r3, [pc, #512]	@ (8000eac <ui_refresh+0x230>)
 8000cac:	701a      	strb	r2, [r3, #0]

  if (app == APP_IDLE) {
 8000cae:	4b7e      	ldr	r3, [pc, #504]	@ (8000ea8 <ui_refresh+0x22c>)
 8000cb0:	781b      	ldrb	r3, [r3, #0]
 8000cb2:	b2db      	uxtb	r3, r3
 8000cb4:	2b00      	cmp	r3, #0
 8000cb6:	d13d      	bne.n	8000d34 <ui_refresh+0xb8>
    char temp[17];
    const char* src = idle_text;
 8000cb8:	4b7d      	ldr	r3, [pc, #500]	@ (8000eb0 <ui_refresh+0x234>)
 8000cba:	681b      	ldr	r3, [r3, #0]
 8000cbc:	657b      	str	r3, [r7, #84]	@ 0x54
    int L = (int)strlen(src);
 8000cbe:	6d7b      	ldr	r3, [r7, #84]	@ 0x54
 8000cc0:	0018      	movs	r0, r3
 8000cc2:	f7ff fa21 	bl	8000108 <strlen>
 8000cc6:	0003      	movs	r3, r0
 8000cc8:	653b      	str	r3, [r7, #80]	@ 0x50
    for (int i=0;i<16;i++) temp[i] = src[(scroll_idx + i) % L];
 8000cca:	2300      	movs	r3, #0
 8000ccc:	66fb      	str	r3, [r7, #108]	@ 0x6c
 8000cce:	e017      	b.n	8000d00 <ui_refresh+0x84>
 8000cd0:	4b78      	ldr	r3, [pc, #480]	@ (8000eb4 <ui_refresh+0x238>)
 8000cd2:	781b      	ldrb	r3, [r3, #0]
 8000cd4:	b2db      	uxtb	r3, r3
 8000cd6:	001a      	movs	r2, r3
 8000cd8:	6efb      	ldr	r3, [r7, #108]	@ 0x6c
 8000cda:	18d3      	adds	r3, r2, r3
 8000cdc:	6d39      	ldr	r1, [r7, #80]	@ 0x50
 8000cde:	0018      	movs	r0, r3
 8000ce0:	f7ff fb94 	bl	800040c <__aeabi_idivmod>
 8000ce4:	000b      	movs	r3, r1
 8000ce6:	001a      	movs	r2, r3
 8000ce8:	6d7b      	ldr	r3, [r7, #84]	@ 0x54
 8000cea:	189b      	adds	r3, r3, r2
 8000cec:	7819      	ldrb	r1, [r3, #0]
 8000cee:	233c      	movs	r3, #60	@ 0x3c
 8000cf0:	18fa      	adds	r2, r7, r3
 8000cf2:	6efb      	ldr	r3, [r7, #108]	@ 0x6c
 8000cf4:	18d3      	adds	r3, r2, r3
 8000cf6:	1c0a      	adds	r2, r1, #0
 8000cf8:	701a      	strb	r2, [r3, #0]
 8000cfa:	6efb      	ldr	r3, [r7, #108]	@ 0x6c
 8000cfc:	3301      	adds	r3, #1
 8000cfe:	66fb      	str	r3, [r7, #108]	@ 0x6c
 8000d00:	6efb      	ldr	r3, [r7, #108]	@ 0x6c
 8000d02:	2b0f      	cmp	r3, #15
 8000d04:	dde4      	ble.n	8000cd0 <ui_refresh+0x54>
    temp[16]=0;
 8000d06:	243c      	movs	r4, #60	@ 0x3c
 8000d08:	193b      	adds	r3, r7, r4
 8000d0a:	2200      	movs	r2, #0
 8000d0c:	741a      	strb	r2, [r3, #16]
    lcd_goto(0,0); lcd_puts_len(temp,16);
 8000d0e:	2100      	movs	r1, #0
 8000d10:	2000      	movs	r0, #0
 8000d12:	f000 fa93 	bl	800123c <lcd_goto>
 8000d16:	193b      	adds	r3, r7, r4
 8000d18:	2110      	movs	r1, #16
 8000d1a:	0018      	movs	r0, r3
 8000d1c:	f000 fac7 	bl	80012ae <lcd_puts_len>

    lcd_goto(1,0);
 8000d20:	2100      	movs	r1, #0
 8000d22:	2001      	movs	r0, #1
 8000d24:	f000 fa8a 	bl	800123c <lcd_goto>
    lcd_puts_len("B1-> Menu cafe  ",16);
 8000d28:	4b63      	ldr	r3, [pc, #396]	@ (8000eb8 <ui_refresh+0x23c>)
 8000d2a:	2110      	movs	r1, #16
 8000d2c:	0018      	movs	r0, r3
 8000d2e:	f000 fabe 	bl	80012ae <lcd_puts_len>
    /* opcional */
  }
  else if (app == APP_DONE) {
    /* ya se imprimió "Disfrutalo" y se paró el servo */
  }
}
 8000d32:	e0b5      	b.n	8000ea0 <ui_refresh+0x224>
  else if (app == APP_MENU) {
 8000d34:	4b5c      	ldr	r3, [pc, #368]	@ (8000ea8 <ui_refresh+0x22c>)
 8000d36:	781b      	ldrb	r3, [r3, #0]
 8000d38:	b2db      	uxtb	r3, r3
 8000d3a:	2b01      	cmp	r3, #1
 8000d3c:	d165      	bne.n	8000e0a <ui_refresh+0x18e>
    const char* src = menu_text;
 8000d3e:	4b5f      	ldr	r3, [pc, #380]	@ (8000ebc <ui_refresh+0x240>)
 8000d40:	681b      	ldr	r3, [r3, #0]
 8000d42:	65fb      	str	r3, [r7, #92]	@ 0x5c
    int L = (int)strlen(src);
 8000d44:	6dfb      	ldr	r3, [r7, #92]	@ 0x5c
 8000d46:	0018      	movs	r0, r3
 8000d48:	f7ff f9de 	bl	8000108 <strlen>
 8000d4c:	0003      	movs	r3, r0
 8000d4e:	65bb      	str	r3, [r7, #88]	@ 0x58
    for (int i=0;i<16;i++) temp[i] = src[(scroll_idx + i) % L];
 8000d50:	2300      	movs	r3, #0
 8000d52:	66bb      	str	r3, [r7, #104]	@ 0x68
 8000d54:	e017      	b.n	8000d86 <ui_refresh+0x10a>
 8000d56:	4b57      	ldr	r3, [pc, #348]	@ (8000eb4 <ui_refresh+0x238>)
 8000d58:	781b      	ldrb	r3, [r3, #0]
 8000d5a:	b2db      	uxtb	r3, r3
 8000d5c:	001a      	movs	r2, r3
 8000d5e:	6ebb      	ldr	r3, [r7, #104]	@ 0x68
 8000d60:	18d3      	adds	r3, r2, r3
 8000d62:	6db9      	ldr	r1, [r7, #88]	@ 0x58
 8000d64:	0018      	movs	r0, r3
 8000d66:	f7ff fb51 	bl	800040c <__aeabi_idivmod>
 8000d6a:	000b      	movs	r3, r1
 8000d6c:	001a      	movs	r2, r3
 8000d6e:	6dfb      	ldr	r3, [r7, #92]	@ 0x5c
 8000d70:	189b      	adds	r3, r3, r2
 8000d72:	7819      	ldrb	r1, [r3, #0]
 8000d74:	2328      	movs	r3, #40	@ 0x28
 8000d76:	18fa      	adds	r2, r7, r3
 8000d78:	6ebb      	ldr	r3, [r7, #104]	@ 0x68
 8000d7a:	18d3      	adds	r3, r2, r3
 8000d7c:	1c0a      	adds	r2, r1, #0
 8000d7e:	701a      	strb	r2, [r3, #0]
 8000d80:	6ebb      	ldr	r3, [r7, #104]	@ 0x68
 8000d82:	3301      	adds	r3, #1
 8000d84:	66bb      	str	r3, [r7, #104]	@ 0x68
 8000d86:	6ebb      	ldr	r3, [r7, #104]	@ 0x68
 8000d88:	2b0f      	cmp	r3, #15
 8000d8a:	dde4      	ble.n	8000d56 <ui_refresh+0xda>
    temp[16]=0;
 8000d8c:	2428      	movs	r4, #40	@ 0x28
 8000d8e:	193b      	adds	r3, r7, r4
 8000d90:	2200      	movs	r2, #0
 8000d92:	741a      	strb	r2, [r3, #16]
    lcd_goto(0,0); lcd_puts_len(temp,16);
 8000d94:	2100      	movs	r1, #0
 8000d96:	2000      	movs	r0, #0
 8000d98:	f000 fa50 	bl	800123c <lcd_goto>
 8000d9c:	193b      	adds	r3, r7, r4
 8000d9e:	2110      	movs	r1, #16
 8000da0:	0018      	movs	r0, r3
 8000da2:	f000 fa84 	bl	80012ae <lcd_puts_len>
    lcd_goto(1,0);
 8000da6:	2100      	movs	r1, #0
 8000da8:	2001      	movs	r0, #1
 8000daa:	f000 fa47 	bl	800123c <lcd_goto>
    if (bebida>=1 && bebida<=4) {
 8000dae:	4b44      	ldr	r3, [pc, #272]	@ (8000ec0 <ui_refresh+0x244>)
 8000db0:	781b      	ldrb	r3, [r3, #0]
 8000db2:	b2db      	uxtb	r3, r3
 8000db4:	2b00      	cmp	r3, #0
 8000db6:	d022      	beq.n	8000dfe <ui_refresh+0x182>
 8000db8:	4b41      	ldr	r3, [pc, #260]	@ (8000ec0 <ui_refresh+0x244>)
 8000dba:	781b      	ldrb	r3, [r3, #0]
 8000dbc:	b2db      	uxtb	r3, r3
 8000dbe:	2b04      	cmp	r3, #4
 8000dc0:	d81d      	bhi.n	8000dfe <ui_refresh+0x182>
      snprintf(buf,sizeof(buf),"%u: %-10s",bebida,sname[bebida]);
 8000dc2:	4b3f      	ldr	r3, [pc, #252]	@ (8000ec0 <ui_refresh+0x244>)
 8000dc4:	781b      	ldrb	r3, [r3, #0]
 8000dc6:	b2db      	uxtb	r3, r3
 8000dc8:	0019      	movs	r1, r3
 8000dca:	4b3d      	ldr	r3, [pc, #244]	@ (8000ec0 <ui_refresh+0x244>)
 8000dcc:	781b      	ldrb	r3, [r3, #0]
 8000dce:	b2db      	uxtb	r3, r3
 8000dd0:	001a      	movs	r2, r3
 8000dd2:	4b3c      	ldr	r3, [pc, #240]	@ (8000ec4 <ui_refresh+0x248>)
 8000dd4:	0092      	lsls	r2, r2, #2
 8000dd6:	58d3      	ldr	r3, [r2, r3]
 8000dd8:	4a3b      	ldr	r2, [pc, #236]	@ (8000ec8 <ui_refresh+0x24c>)
 8000dda:	2414      	movs	r4, #20
 8000ddc:	1938      	adds	r0, r7, r4
 8000dde:	9300      	str	r3, [sp, #0]
 8000de0:	000b      	movs	r3, r1
 8000de2:	2111      	movs	r1, #17
 8000de4:	f000 fd38 	bl	8001858 <sniprintf>
      buf[16]=0;
 8000de8:	0021      	movs	r1, r4
 8000dea:	187b      	adds	r3, r7, r1
 8000dec:	2200      	movs	r2, #0
 8000dee:	741a      	strb	r2, [r3, #16]
      lcd_puts_len(buf,16);
 8000df0:	187b      	adds	r3, r7, r1
 8000df2:	2110      	movs	r1, #16
 8000df4:	0018      	movs	r0, r3
 8000df6:	f000 fa5a 	bl	80012ae <lcd_puts_len>
    if (bebida>=1 && bebida<=4) {
 8000dfa:	46c0      	nop			@ (mov r8, r8)
}
 8000dfc:	e050      	b.n	8000ea0 <ui_refresh+0x224>
      lcd_puts_len("B1: cambiar tipo",16);
 8000dfe:	4b33      	ldr	r3, [pc, #204]	@ (8000ecc <ui_refresh+0x250>)
 8000e00:	2110      	movs	r1, #16
 8000e02:	0018      	movs	r0, r3
 8000e04:	f000 fa53 	bl	80012ae <lcd_puts_len>
}
 8000e08:	e04a      	b.n	8000ea0 <ui_refresh+0x224>
  else if (app == APP_SIZE) {
 8000e0a:	4b27      	ldr	r3, [pc, #156]	@ (8000ea8 <ui_refresh+0x22c>)
 8000e0c:	781b      	ldrb	r3, [r3, #0]
 8000e0e:	b2db      	uxtb	r3, r3
 8000e10:	2b02      	cmp	r3, #2
 8000e12:	d12d      	bne.n	8000e70 <ui_refresh+0x1f4>
    if (first_draw_of_state) {
 8000e14:	2367      	movs	r3, #103	@ 0x67
 8000e16:	18fb      	adds	r3, r7, r3
 8000e18:	781b      	ldrb	r3, [r3, #0]
 8000e1a:	2b00      	cmp	r3, #0
 8000e1c:	d008      	beq.n	8000e30 <ui_refresh+0x1b4>
      lcd_goto(0,0); lcd_puts_len("Tamano (S/M/L)  ",16);
 8000e1e:	2100      	movs	r1, #0
 8000e20:	2000      	movs	r0, #0
 8000e22:	f000 fa0b 	bl	800123c <lcd_goto>
 8000e26:	4b2a      	ldr	r3, [pc, #168]	@ (8000ed0 <ui_refresh+0x254>)
 8000e28:	2110      	movs	r1, #16
 8000e2a:	0018      	movs	r0, r3
 8000e2c:	f000 fa3f 	bl	80012ae <lcd_puts_len>
    lcd_goto(1,0);
 8000e30:	2100      	movs	r1, #0
 8000e32:	2001      	movs	r0, #1
 8000e34:	f000 fa02 	bl	800123c <lcd_goto>
    const char* sz = (size_sel==1)?"S":(size_sel==3)?"L":"M";
 8000e38:	4b26      	ldr	r3, [pc, #152]	@ (8000ed4 <ui_refresh+0x258>)
 8000e3a:	781b      	ldrb	r3, [r3, #0]
 8000e3c:	b2db      	uxtb	r3, r3
 8000e3e:	2b01      	cmp	r3, #1
 8000e40:	d008      	beq.n	8000e54 <ui_refresh+0x1d8>
 8000e42:	4b24      	ldr	r3, [pc, #144]	@ (8000ed4 <ui_refresh+0x258>)
 8000e44:	781b      	ldrb	r3, [r3, #0]
 8000e46:	b2db      	uxtb	r3, r3
 8000e48:	2b03      	cmp	r3, #3
 8000e4a:	d101      	bne.n	8000e50 <ui_refresh+0x1d4>
 8000e4c:	4b22      	ldr	r3, [pc, #136]	@ (8000ed8 <ui_refresh+0x25c>)
 8000e4e:	e002      	b.n	8000e56 <ui_refresh+0x1da>
 8000e50:	4b22      	ldr	r3, [pc, #136]	@ (8000edc <ui_refresh+0x260>)
 8000e52:	e000      	b.n	8000e56 <ui_refresh+0x1da>
 8000e54:	4b22      	ldr	r3, [pc, #136]	@ (8000ee0 <ui_refresh+0x264>)
 8000e56:	663b      	str	r3, [r7, #96]	@ 0x60
    snprintf(buf,sizeof(buf),"Actual: %s        ",sz);
 8000e58:	6e3b      	ldr	r3, [r7, #96]	@ 0x60
 8000e5a:	4a22      	ldr	r2, [pc, #136]	@ (8000ee4 <ui_refresh+0x268>)
 8000e5c:	0038      	movs	r0, r7
 8000e5e:	2111      	movs	r1, #17
 8000e60:	f000 fcfa 	bl	8001858 <sniprintf>
    lcd_puts_len(buf,16);
 8000e64:	003b      	movs	r3, r7
 8000e66:	2110      	movs	r1, #16
 8000e68:	0018      	movs	r0, r3
 8000e6a:	f000 fa20 	bl	80012ae <lcd_puts_len>
}
 8000e6e:	e017      	b.n	8000ea0 <ui_refresh+0x224>
  else if (app == APP_RUN) {
 8000e70:	4b0d      	ldr	r3, [pc, #52]	@ (8000ea8 <ui_refresh+0x22c>)
 8000e72:	781b      	ldrb	r3, [r3, #0]
 8000e74:	b2db      	uxtb	r3, r3
 8000e76:	2b03      	cmp	r3, #3
 8000e78:	d10b      	bne.n	8000e92 <ui_refresh+0x216>
    lcd_goto(0,0);
 8000e7a:	2100      	movs	r1, #0
 8000e7c:	2000      	movs	r0, #0
 8000e7e:	f000 f9dd 	bl	800123c <lcd_goto>
    lcd_puts_len("Cafe preparandose",16);
 8000e82:	4b19      	ldr	r3, [pc, #100]	@ (8000ee8 <ui_refresh+0x26c>)
 8000e84:	2110      	movs	r1, #16
 8000e86:	0018      	movs	r0, r3
 8000e88:	f000 fa11 	bl	80012ae <lcd_puts_len>
    ui_show_time_remaining();
 8000e8c:	f000 f82e 	bl	8000eec <ui_show_time_remaining>
}
 8000e90:	e006      	b.n	8000ea0 <ui_refresh+0x224>
  else if (app == APP_PAUSE) {
 8000e92:	4b05      	ldr	r3, [pc, #20]	@ (8000ea8 <ui_refresh+0x22c>)
 8000e94:	781b      	ldrb	r3, [r3, #0]
 8000e96:	b2db      	uxtb	r3, r3
 8000e98:	2b04      	cmp	r3, #4
 8000e9a:	d001      	beq.n	8000ea0 <ui_refresh+0x224>
  else if (app == APP_DONE) {
 8000e9c:	4b02      	ldr	r3, [pc, #8]	@ (8000ea8 <ui_refresh+0x22c>)
 8000e9e:	781b      	ldrb	r3, [r3, #0]
}
 8000ea0:	46c0      	nop			@ (mov r8, r8)
 8000ea2:	46bd      	mov	sp, r7
 8000ea4:	b01d      	add	sp, #116	@ 0x74
 8000ea6:	bd90      	pop	{r4, r7, pc}
 8000ea8:	20000094 	.word	0x20000094
 8000eac:	20000000 	.word	0x20000000
 8000eb0:	20000004 	.word	0x20000004
 8000eb4:	200000b0 	.word	0x200000b0
 8000eb8:	0800221c 	.word	0x0800221c
 8000ebc:	20000008 	.word	0x20000008
 8000ec0:	20000096 	.word	0x20000096
 8000ec4:	20000010 	.word	0x20000010
 8000ec8:	08002230 	.word	0x08002230
 8000ecc:	0800223c 	.word	0x0800223c
 8000ed0:	08002250 	.word	0x08002250
 8000ed4:	20000001 	.word	0x20000001
 8000ed8:	08002264 	.word	0x08002264
 8000edc:	08002268 	.word	0x08002268
 8000ee0:	0800226c 	.word	0x0800226c
 8000ee4:	08002270 	.word	0x08002270
 8000ee8:	08002284 	.word	0x08002284

08000eec <ui_show_time_remaining>:

/* --- Línea 2: barra (11) + espacio + "sss" (4) = 16 --- */
static void ui_show_time_remaining(void)
{
 8000eec:	b580      	push	{r7, lr}
 8000eee:	b088      	sub	sp, #32
 8000ef0:	af00      	add	r7, sp, #0
  lcd_goto(1,0);
 8000ef2:	2100      	movs	r1, #0
 8000ef4:	2001      	movs	r0, #1
 8000ef6:	f000 f9a1 	bl	800123c <lcd_goto>

  if (t_total_ms == 0) {
 8000efa:	4b39      	ldr	r3, [pc, #228]	@ (8000fe0 <ui_show_time_remaining+0xf4>)
 8000efc:	681b      	ldr	r3, [r3, #0]
 8000efe:	2b00      	cmp	r3, #0
 8000f00:	d105      	bne.n	8000f0e <ui_show_time_remaining+0x22>
    lcd_puts_len("                ", 16);
 8000f02:	4b38      	ldr	r3, [pc, #224]	@ (8000fe4 <ui_show_time_remaining+0xf8>)
 8000f04:	2110      	movs	r1, #16
 8000f06:	0018      	movs	r0, r3
 8000f08:	f000 f9d1 	bl	80012ae <lcd_puts_len>
 8000f0c:	e064      	b.n	8000fd8 <ui_show_time_remaining+0xec>
    return;
  }

  uint32_t done = t_total_ms - t_rem_ms;
 8000f0e:	4b34      	ldr	r3, [pc, #208]	@ (8000fe0 <ui_show_time_remaining+0xf4>)
 8000f10:	681a      	ldr	r2, [r3, #0]
 8000f12:	4b35      	ldr	r3, [pc, #212]	@ (8000fe8 <ui_show_time_remaining+0xfc>)
 8000f14:	681b      	ldr	r3, [r3, #0]
 8000f16:	1ad3      	subs	r3, r2, r3
 8000f18:	617b      	str	r3, [r7, #20]
  uint8_t filled = (uint8_t)((done * 11) / t_total_ms);
 8000f1a:	697a      	ldr	r2, [r7, #20]
 8000f1c:	0013      	movs	r3, r2
 8000f1e:	009b      	lsls	r3, r3, #2
 8000f20:	189b      	adds	r3, r3, r2
 8000f22:	005b      	lsls	r3, r3, #1
 8000f24:	189a      	adds	r2, r3, r2
 8000f26:	4b2e      	ldr	r3, [pc, #184]	@ (8000fe0 <ui_show_time_remaining+0xf4>)
 8000f28:	681b      	ldr	r3, [r3, #0]
 8000f2a:	0019      	movs	r1, r3
 8000f2c:	0010      	movs	r0, r2
 8000f2e:	f7ff f8fd 	bl	800012c <__udivsi3>
 8000f32:	0003      	movs	r3, r0
 8000f34:	001a      	movs	r2, r3
 8000f36:	211f      	movs	r1, #31
 8000f38:	187b      	adds	r3, r7, r1
 8000f3a:	701a      	strb	r2, [r3, #0]
  if (filled > 11) filled = 11;
 8000f3c:	000a      	movs	r2, r1
 8000f3e:	18bb      	adds	r3, r7, r2
 8000f40:	781b      	ldrb	r3, [r3, #0]
 8000f42:	2b0b      	cmp	r3, #11
 8000f44:	d902      	bls.n	8000f4c <ui_show_time_remaining+0x60>
 8000f46:	18bb      	adds	r3, r7, r2
 8000f48:	220b      	movs	r2, #11
 8000f4a:	701a      	strb	r2, [r3, #0]

  char buf[17];
  for (uint8_t i=0; i<11; i++) buf[i] = (i < filled) ? '#' : '.';
 8000f4c:	231e      	movs	r3, #30
 8000f4e:	18fb      	adds	r3, r7, r3
 8000f50:	2200      	movs	r2, #0
 8000f52:	701a      	strb	r2, [r3, #0]
 8000f54:	e014      	b.n	8000f80 <ui_show_time_remaining+0x94>
 8000f56:	231e      	movs	r3, #30
 8000f58:	18fa      	adds	r2, r7, r3
 8000f5a:	231f      	movs	r3, #31
 8000f5c:	18fb      	adds	r3, r7, r3
 8000f5e:	7812      	ldrb	r2, [r2, #0]
 8000f60:	781b      	ldrb	r3, [r3, #0]
 8000f62:	429a      	cmp	r2, r3
 8000f64:	d201      	bcs.n	8000f6a <ui_show_time_remaining+0x7e>
 8000f66:	2123      	movs	r1, #35	@ 0x23
 8000f68:	e000      	b.n	8000f6c <ui_show_time_remaining+0x80>
 8000f6a:	212e      	movs	r1, #46	@ 0x2e
 8000f6c:	201e      	movs	r0, #30
 8000f6e:	183b      	adds	r3, r7, r0
 8000f70:	781b      	ldrb	r3, [r3, #0]
 8000f72:	003a      	movs	r2, r7
 8000f74:	54d1      	strb	r1, [r2, r3]
 8000f76:	183b      	adds	r3, r7, r0
 8000f78:	781a      	ldrb	r2, [r3, #0]
 8000f7a:	183b      	adds	r3, r7, r0
 8000f7c:	3201      	adds	r2, #1
 8000f7e:	701a      	strb	r2, [r3, #0]
 8000f80:	231e      	movs	r3, #30
 8000f82:	18fb      	adds	r3, r7, r3
 8000f84:	781b      	ldrb	r3, [r3, #0]
 8000f86:	2b0a      	cmp	r3, #10
 8000f88:	d9e5      	bls.n	8000f56 <ui_show_time_remaining+0x6a>
  buf[11] = ' ';
 8000f8a:	003b      	movs	r3, r7
 8000f8c:	2220      	movs	r2, #32
 8000f8e:	72da      	strb	r2, [r3, #11]

  uint32_t sec = (t_rem_ms + 999) / 1000;
 8000f90:	4b15      	ldr	r3, [pc, #84]	@ (8000fe8 <ui_show_time_remaining+0xfc>)
 8000f92:	681b      	ldr	r3, [r3, #0]
 8000f94:	4a15      	ldr	r2, [pc, #84]	@ (8000fec <ui_show_time_remaining+0x100>)
 8000f96:	4694      	mov	ip, r2
 8000f98:	4463      	add	r3, ip
 8000f9a:	22fa      	movs	r2, #250	@ 0xfa
 8000f9c:	0091      	lsls	r1, r2, #2
 8000f9e:	0018      	movs	r0, r3
 8000fa0:	f7ff f8c4 	bl	800012c <__udivsi3>
 8000fa4:	0003      	movs	r3, r0
 8000fa6:	61bb      	str	r3, [r7, #24]
  if (sec > 999) sec = 999;
 8000fa8:	69ba      	ldr	r2, [r7, #24]
 8000faa:	23fa      	movs	r3, #250	@ 0xfa
 8000fac:	009b      	lsls	r3, r3, #2
 8000fae:	429a      	cmp	r2, r3
 8000fb0:	d301      	bcc.n	8000fb6 <ui_show_time_remaining+0xca>
 8000fb2:	4b0e      	ldr	r3, [pc, #56]	@ (8000fec <ui_show_time_remaining+0x100>)
 8000fb4:	61bb      	str	r3, [r7, #24]
  snprintf(&buf[12], 5, "%3lus", (unsigned long)sec);
 8000fb6:	69b9      	ldr	r1, [r7, #24]
 8000fb8:	4a0d      	ldr	r2, [pc, #52]	@ (8000ff0 <ui_show_time_remaining+0x104>)
 8000fba:	003b      	movs	r3, r7
 8000fbc:	330c      	adds	r3, #12
 8000fbe:	0018      	movs	r0, r3
 8000fc0:	000b      	movs	r3, r1
 8000fc2:	2105      	movs	r1, #5
 8000fc4:	f000 fc48 	bl	8001858 <sniprintf>

  buf[16] = 0;
 8000fc8:	003b      	movs	r3, r7
 8000fca:	2200      	movs	r2, #0
 8000fcc:	741a      	strb	r2, [r3, #16]
  lcd_puts_len(buf, 16);
 8000fce:	003b      	movs	r3, r7
 8000fd0:	2110      	movs	r1, #16
 8000fd2:	0018      	movs	r0, r3
 8000fd4:	f000 f96b 	bl	80012ae <lcd_puts_len>
}
 8000fd8:	46bd      	mov	sp, r7
 8000fda:	b008      	add	sp, #32
 8000fdc:	bd80      	pop	{r7, pc}
 8000fde:	46c0      	nop			@ (mov r8, r8)
 8000fe0:	2000009c 	.word	0x2000009c
 8000fe4:	08002298 	.word	0x08002298
 8000fe8:	200000a4 	.word	0x200000a4
 8000fec:	000003e7 	.word	0x000003e7
 8000ff0:	080022ac 	.word	0x080022ac

08000ff4 <i2c1_write_byte>:

/* ===================== LCD (I2C + PCF8574) ===================== */
static void i2c1_write_byte(uint8_t addr7, uint8_t data)
{
 8000ff4:	b580      	push	{r7, lr}
 8000ff6:	b082      	sub	sp, #8
 8000ff8:	af00      	add	r7, sp, #0
 8000ffa:	0002      	movs	r2, r0
 8000ffc:	1dfb      	adds	r3, r7, #7
 8000ffe:	701a      	strb	r2, [r3, #0]
 8001000:	1dbb      	adds	r3, r7, #6
 8001002:	1c0a      	adds	r2, r1, #0
 8001004:	701a      	strb	r2, [r3, #0]
  I2C1->CR2 = (addr7<<1) | (1u<<16) | I2C_CR2_START | I2C_CR2_AUTOEND;
 8001006:	1dfb      	adds	r3, r7, #7
 8001008:	781b      	ldrb	r3, [r3, #0]
 800100a:	005a      	lsls	r2, r3, #1
 800100c:	4b0d      	ldr	r3, [pc, #52]	@ (8001044 <i2c1_write_byte+0x50>)
 800100e:	490e      	ldr	r1, [pc, #56]	@ (8001048 <i2c1_write_byte+0x54>)
 8001010:	430a      	orrs	r2, r1
 8001012:	605a      	str	r2, [r3, #4]
  while(!(I2C1->ISR & I2C_ISR_TXIS));
 8001014:	46c0      	nop			@ (mov r8, r8)
 8001016:	4b0b      	ldr	r3, [pc, #44]	@ (8001044 <i2c1_write_byte+0x50>)
 8001018:	699b      	ldr	r3, [r3, #24]
 800101a:	2202      	movs	r2, #2
 800101c:	4013      	ands	r3, r2
 800101e:	d0fa      	beq.n	8001016 <i2c1_write_byte+0x22>
  I2C1->TXDR = data;
 8001020:	4b08      	ldr	r3, [pc, #32]	@ (8001044 <i2c1_write_byte+0x50>)
 8001022:	1dba      	adds	r2, r7, #6
 8001024:	7812      	ldrb	r2, [r2, #0]
 8001026:	629a      	str	r2, [r3, #40]	@ 0x28
  while(!(I2C1->ISR & I2C_ISR_STOPF));
 8001028:	46c0      	nop			@ (mov r8, r8)
 800102a:	4b06      	ldr	r3, [pc, #24]	@ (8001044 <i2c1_write_byte+0x50>)
 800102c:	699b      	ldr	r3, [r3, #24]
 800102e:	2220      	movs	r2, #32
 8001030:	4013      	ands	r3, r2
 8001032:	d0fa      	beq.n	800102a <i2c1_write_byte+0x36>
  I2C1->ICR = I2C_ICR_STOPCF;
 8001034:	4b03      	ldr	r3, [pc, #12]	@ (8001044 <i2c1_write_byte+0x50>)
 8001036:	2220      	movs	r2, #32
 8001038:	61da      	str	r2, [r3, #28]
}
 800103a:	46c0      	nop			@ (mov r8, r8)
 800103c:	46bd      	mov	sp, r7
 800103e:	b002      	add	sp, #8
 8001040:	bd80      	pop	{r7, pc}
 8001042:	46c0      	nop			@ (mov r8, r8)
 8001044:	40005400 	.word	0x40005400
 8001048:	02012000 	.word	0x02012000

0800104c <lcd_pulse>:

static void lcd_pulse(uint8_t d) { i2c1_write_byte(LCD_I2C_ADDR_7B, d | LCD_EN | LCD_BL); i2c1_write_byte(LCD_I2C_ADDR_7B, d | LCD_BL); }
 800104c:	b580      	push	{r7, lr}
 800104e:	b082      	sub	sp, #8
 8001050:	af00      	add	r7, sp, #0
 8001052:	0002      	movs	r2, r0
 8001054:	1dfb      	adds	r3, r7, #7
 8001056:	701a      	strb	r2, [r3, #0]
 8001058:	1dfb      	adds	r3, r7, #7
 800105a:	781b      	ldrb	r3, [r3, #0]
 800105c:	220c      	movs	r2, #12
 800105e:	4313      	orrs	r3, r2
 8001060:	b2db      	uxtb	r3, r3
 8001062:	0019      	movs	r1, r3
 8001064:	2027      	movs	r0, #39	@ 0x27
 8001066:	f7ff ffc5 	bl	8000ff4 <i2c1_write_byte>
 800106a:	1dfb      	adds	r3, r7, #7
 800106c:	781b      	ldrb	r3, [r3, #0]
 800106e:	2208      	movs	r2, #8
 8001070:	4313      	orrs	r3, r2
 8001072:	b2db      	uxtb	r3, r3
 8001074:	0019      	movs	r1, r3
 8001076:	2027      	movs	r0, #39	@ 0x27
 8001078:	f7ff ffbc 	bl	8000ff4 <i2c1_write_byte>
 800107c:	46c0      	nop			@ (mov r8, r8)
 800107e:	46bd      	mov	sp, r7
 8001080:	b002      	add	sp, #8
 8001082:	bd80      	pop	{r7, pc}

08001084 <lcd_write_nibble>:

static void lcd_write_nibble(uint8_t en_rs_bl, uint8_t nib)
{
 8001084:	b580      	push	{r7, lr}
 8001086:	b084      	sub	sp, #16
 8001088:	af00      	add	r7, sp, #0
 800108a:	0002      	movs	r2, r0
 800108c:	1dfb      	adds	r3, r7, #7
 800108e:	701a      	strb	r2, [r3, #0]
 8001090:	1dbb      	adds	r3, r7, #6
 8001092:	1c0a      	adds	r2, r1, #0
 8001094:	701a      	strb	r2, [r3, #0]
  uint8_t d = en_rs_bl | ((nib & 0x0F) << 4);
 8001096:	1dbb      	adds	r3, r7, #6
 8001098:	781b      	ldrb	r3, [r3, #0]
 800109a:	b25b      	sxtb	r3, r3
 800109c:	011b      	lsls	r3, r3, #4
 800109e:	b25a      	sxtb	r2, r3
 80010a0:	1dfb      	adds	r3, r7, #7
 80010a2:	781b      	ldrb	r3, [r3, #0]
 80010a4:	b25b      	sxtb	r3, r3
 80010a6:	4313      	orrs	r3, r2
 80010a8:	b25a      	sxtb	r2, r3
 80010aa:	210f      	movs	r1, #15
 80010ac:	187b      	adds	r3, r7, r1
 80010ae:	701a      	strb	r2, [r3, #0]
  lcd_pulse(d);
 80010b0:	187b      	adds	r3, r7, r1
 80010b2:	781b      	ldrb	r3, [r3, #0]
 80010b4:	0018      	movs	r0, r3
 80010b6:	f7ff ffc9 	bl	800104c <lcd_pulse>
}
 80010ba:	46c0      	nop			@ (mov r8, r8)
 80010bc:	46bd      	mov	sp, r7
 80010be:	b004      	add	sp, #16
 80010c0:	bd80      	pop	{r7, pc}

080010c2 <lcd_cmd>:

static void lcd_cmd(uint8_t c)
{
 80010c2:	b590      	push	{r4, r7, lr}
 80010c4:	b085      	sub	sp, #20
 80010c6:	af00      	add	r7, sp, #0
 80010c8:	0002      	movs	r2, r0
 80010ca:	1dfb      	adds	r3, r7, #7
 80010cc:	701a      	strb	r2, [r3, #0]
  uint8_t rs = 0;
 80010ce:	240f      	movs	r4, #15
 80010d0:	193b      	adds	r3, r7, r4
 80010d2:	2200      	movs	r2, #0
 80010d4:	701a      	strb	r2, [r3, #0]
  lcd_write_nibble(rs, (c>>4)&0x0F);
 80010d6:	1dfb      	adds	r3, r7, #7
 80010d8:	781b      	ldrb	r3, [r3, #0]
 80010da:	091b      	lsrs	r3, r3, #4
 80010dc:	b2da      	uxtb	r2, r3
 80010de:	193b      	adds	r3, r7, r4
 80010e0:	781b      	ldrb	r3, [r3, #0]
 80010e2:	0011      	movs	r1, r2
 80010e4:	0018      	movs	r0, r3
 80010e6:	f7ff ffcd 	bl	8001084 <lcd_write_nibble>
  lcd_write_nibble(rs, c & 0x0F);
 80010ea:	1dfb      	adds	r3, r7, #7
 80010ec:	781b      	ldrb	r3, [r3, #0]
 80010ee:	220f      	movs	r2, #15
 80010f0:	4013      	ands	r3, r2
 80010f2:	b2da      	uxtb	r2, r3
 80010f4:	193b      	adds	r3, r7, r4
 80010f6:	781b      	ldrb	r3, [r3, #0]
 80010f8:	0011      	movs	r1, r2
 80010fa:	0018      	movs	r0, r3
 80010fc:	f7ff ffc2 	bl	8001084 <lcd_write_nibble>
}
 8001100:	46c0      	nop			@ (mov r8, r8)
 8001102:	46bd      	mov	sp, r7
 8001104:	b005      	add	sp, #20
 8001106:	bd90      	pop	{r4, r7, pc}

08001108 <lcd_data>:

static void lcd_data(uint8_t d8)
{
 8001108:	b590      	push	{r4, r7, lr}
 800110a:	b085      	sub	sp, #20
 800110c:	af00      	add	r7, sp, #0
 800110e:	0002      	movs	r2, r0
 8001110:	1dfb      	adds	r3, r7, #7
 8001112:	701a      	strb	r2, [r3, #0]
  uint8_t rs = LCD_RS;
 8001114:	240f      	movs	r4, #15
 8001116:	193b      	adds	r3, r7, r4
 8001118:	2201      	movs	r2, #1
 800111a:	701a      	strb	r2, [r3, #0]
  lcd_write_nibble(rs, (d8>>4)&0x0F);
 800111c:	1dfb      	adds	r3, r7, #7
 800111e:	781b      	ldrb	r3, [r3, #0]
 8001120:	091b      	lsrs	r3, r3, #4
 8001122:	b2da      	uxtb	r2, r3
 8001124:	193b      	adds	r3, r7, r4
 8001126:	781b      	ldrb	r3, [r3, #0]
 8001128:	0011      	movs	r1, r2
 800112a:	0018      	movs	r0, r3
 800112c:	f7ff ffaa 	bl	8001084 <lcd_write_nibble>
  lcd_write_nibble(rs, d8 & 0x0F);
 8001130:	1dfb      	adds	r3, r7, #7
 8001132:	781b      	ldrb	r3, [r3, #0]
 8001134:	220f      	movs	r2, #15
 8001136:	4013      	ands	r3, r2
 8001138:	b2da      	uxtb	r2, r3
 800113a:	193b      	adds	r3, r7, r4
 800113c:	781b      	ldrb	r3, [r3, #0]
 800113e:	0011      	movs	r1, r2
 8001140:	0018      	movs	r0, r3
 8001142:	f7ff ff9f 	bl	8001084 <lcd_write_nibble>
}
 8001146:	46c0      	nop			@ (mov r8, r8)
 8001148:	46bd      	mov	sp, r7
 800114a:	b005      	add	sp, #20
 800114c:	bd90      	pop	{r4, r7, pc}
	...

08001150 <lcd_init>:

static void lcd_init(void)
{
 8001150:	b580      	push	{r7, lr}
 8001152:	b086      	sub	sp, #24
 8001154:	af00      	add	r7, sp, #0
  for (volatile int i=0;i<8000;i++);
 8001156:	2300      	movs	r3, #0
 8001158:	617b      	str	r3, [r7, #20]
 800115a:	e002      	b.n	8001162 <lcd_init+0x12>
 800115c:	697b      	ldr	r3, [r7, #20]
 800115e:	3301      	adds	r3, #1
 8001160:	617b      	str	r3, [r7, #20]
 8001162:	697a      	ldr	r2, [r7, #20]
 8001164:	23fa      	movs	r3, #250	@ 0xfa
 8001166:	015b      	lsls	r3, r3, #5
 8001168:	429a      	cmp	r2, r3
 800116a:	dbf7      	blt.n	800115c <lcd_init+0xc>
  lcd_write_nibble(0, 0x03); for (volatile int i=0;i<3000;i++);
 800116c:	2103      	movs	r1, #3
 800116e:	2000      	movs	r0, #0
 8001170:	f7ff ff88 	bl	8001084 <lcd_write_nibble>
 8001174:	2300      	movs	r3, #0
 8001176:	613b      	str	r3, [r7, #16]
 8001178:	e002      	b.n	8001180 <lcd_init+0x30>
 800117a:	693b      	ldr	r3, [r7, #16]
 800117c:	3301      	adds	r3, #1
 800117e:	613b      	str	r3, [r7, #16]
 8001180:	693b      	ldr	r3, [r7, #16]
 8001182:	4a20      	ldr	r2, [pc, #128]	@ (8001204 <lcd_init+0xb4>)
 8001184:	4293      	cmp	r3, r2
 8001186:	ddf8      	ble.n	800117a <lcd_init+0x2a>
  lcd_write_nibble(0, 0x03); for (volatile int i=0;i<3000;i++);
 8001188:	2103      	movs	r1, #3
 800118a:	2000      	movs	r0, #0
 800118c:	f7ff ff7a 	bl	8001084 <lcd_write_nibble>
 8001190:	2300      	movs	r3, #0
 8001192:	60fb      	str	r3, [r7, #12]
 8001194:	e002      	b.n	800119c <lcd_init+0x4c>
 8001196:	68fb      	ldr	r3, [r7, #12]
 8001198:	3301      	adds	r3, #1
 800119a:	60fb      	str	r3, [r7, #12]
 800119c:	68fb      	ldr	r3, [r7, #12]
 800119e:	4a19      	ldr	r2, [pc, #100]	@ (8001204 <lcd_init+0xb4>)
 80011a0:	4293      	cmp	r3, r2
 80011a2:	ddf8      	ble.n	8001196 <lcd_init+0x46>
  lcd_write_nibble(0, 0x03); for (volatile int i=0;i<3000;i++);
 80011a4:	2103      	movs	r1, #3
 80011a6:	2000      	movs	r0, #0
 80011a8:	f7ff ff6c 	bl	8001084 <lcd_write_nibble>
 80011ac:	2300      	movs	r3, #0
 80011ae:	60bb      	str	r3, [r7, #8]
 80011b0:	e002      	b.n	80011b8 <lcd_init+0x68>
 80011b2:	68bb      	ldr	r3, [r7, #8]
 80011b4:	3301      	adds	r3, #1
 80011b6:	60bb      	str	r3, [r7, #8]
 80011b8:	68bb      	ldr	r3, [r7, #8]
 80011ba:	4a12      	ldr	r2, [pc, #72]	@ (8001204 <lcd_init+0xb4>)
 80011bc:	4293      	cmp	r3, r2
 80011be:	ddf8      	ble.n	80011b2 <lcd_init+0x62>
  lcd_write_nibble(0, 0x02); // 4-bit
 80011c0:	2102      	movs	r1, #2
 80011c2:	2000      	movs	r0, #0
 80011c4:	f7ff ff5e 	bl	8001084 <lcd_write_nibble>

  lcd_cmd(0x28); // 2 líneas, 5x8
 80011c8:	2028      	movs	r0, #40	@ 0x28
 80011ca:	f7ff ff7a 	bl	80010c2 <lcd_cmd>
  lcd_cmd(0x08); // display off
 80011ce:	2008      	movs	r0, #8
 80011d0:	f7ff ff77 	bl	80010c2 <lcd_cmd>
  lcd_cmd(0x01); // clear
 80011d4:	2001      	movs	r0, #1
 80011d6:	f7ff ff74 	bl	80010c2 <lcd_cmd>
  for (volatile int i=0;i<6000;i++);
 80011da:	2300      	movs	r3, #0
 80011dc:	607b      	str	r3, [r7, #4]
 80011de:	e002      	b.n	80011e6 <lcd_init+0x96>
 80011e0:	687b      	ldr	r3, [r7, #4]
 80011e2:	3301      	adds	r3, #1
 80011e4:	607b      	str	r3, [r7, #4]
 80011e6:	687b      	ldr	r3, [r7, #4]
 80011e8:	4a07      	ldr	r2, [pc, #28]	@ (8001208 <lcd_init+0xb8>)
 80011ea:	4293      	cmp	r3, r2
 80011ec:	ddf8      	ble.n	80011e0 <lcd_init+0x90>
  lcd_cmd(0x06); // entry mode
 80011ee:	2006      	movs	r0, #6
 80011f0:	f7ff ff67 	bl	80010c2 <lcd_cmd>
  lcd_cmd(0x0C); // display on, cursor off
 80011f4:	200c      	movs	r0, #12
 80011f6:	f7ff ff64 	bl	80010c2 <lcd_cmd>
}
 80011fa:	46c0      	nop			@ (mov r8, r8)
 80011fc:	46bd      	mov	sp, r7
 80011fe:	b006      	add	sp, #24
 8001200:	bd80      	pop	{r7, pc}
 8001202:	46c0      	nop			@ (mov r8, r8)
 8001204:	00000bb7 	.word	0x00000bb7
 8001208:	0000176f 	.word	0x0000176f

0800120c <lcd_clear>:

static void lcd_clear(void) { lcd_cmd(0x01); for(volatile int i=0;i<6000;i++); }
 800120c:	b580      	push	{r7, lr}
 800120e:	b082      	sub	sp, #8
 8001210:	af00      	add	r7, sp, #0
 8001212:	2001      	movs	r0, #1
 8001214:	f7ff ff55 	bl	80010c2 <lcd_cmd>
 8001218:	2300      	movs	r3, #0
 800121a:	607b      	str	r3, [r7, #4]
 800121c:	e002      	b.n	8001224 <lcd_clear+0x18>
 800121e:	687b      	ldr	r3, [r7, #4]
 8001220:	3301      	adds	r3, #1
 8001222:	607b      	str	r3, [r7, #4]
 8001224:	687b      	ldr	r3, [r7, #4]
 8001226:	4a04      	ldr	r2, [pc, #16]	@ (8001238 <lcd_clear+0x2c>)
 8001228:	4293      	cmp	r3, r2
 800122a:	ddf8      	ble.n	800121e <lcd_clear+0x12>
 800122c:	46c0      	nop			@ (mov r8, r8)
 800122e:	46c0      	nop			@ (mov r8, r8)
 8001230:	46bd      	mov	sp, r7
 8001232:	b002      	add	sp, #8
 8001234:	bd80      	pop	{r7, pc}
 8001236:	46c0      	nop			@ (mov r8, r8)
 8001238:	0000176f 	.word	0x0000176f

0800123c <lcd_goto>:
static void lcd_goto(uint8_t row, uint8_t col)
{
 800123c:	b580      	push	{r7, lr}
 800123e:	b084      	sub	sp, #16
 8001240:	af00      	add	r7, sp, #0
 8001242:	0002      	movs	r2, r0
 8001244:	1dfb      	adds	r3, r7, #7
 8001246:	701a      	strb	r2, [r3, #0]
 8001248:	1dbb      	adds	r3, r7, #6
 800124a:	1c0a      	adds	r2, r1, #0
 800124c:	701a      	strb	r2, [r3, #0]
  uint8_t addr = (row==0)? (0x00+col) : (0x40+col);
 800124e:	1dfb      	adds	r3, r7, #7
 8001250:	781b      	ldrb	r3, [r3, #0]
 8001252:	2b00      	cmp	r3, #0
 8001254:	d004      	beq.n	8001260 <lcd_goto+0x24>
 8001256:	1dbb      	adds	r3, r7, #6
 8001258:	781b      	ldrb	r3, [r3, #0]
 800125a:	3340      	adds	r3, #64	@ 0x40
 800125c:	b2db      	uxtb	r3, r3
 800125e:	e001      	b.n	8001264 <lcd_goto+0x28>
 8001260:	1dbb      	adds	r3, r7, #6
 8001262:	781b      	ldrb	r3, [r3, #0]
 8001264:	210f      	movs	r1, #15
 8001266:	187a      	adds	r2, r7, r1
 8001268:	7013      	strb	r3, [r2, #0]
  lcd_cmd(0x80 | addr);
 800126a:	187b      	adds	r3, r7, r1
 800126c:	781b      	ldrb	r3, [r3, #0]
 800126e:	2280      	movs	r2, #128	@ 0x80
 8001270:	4252      	negs	r2, r2
 8001272:	4313      	orrs	r3, r2
 8001274:	b2db      	uxtb	r3, r3
 8001276:	0018      	movs	r0, r3
 8001278:	f7ff ff23 	bl	80010c2 <lcd_cmd>
}
 800127c:	46c0      	nop			@ (mov r8, r8)
 800127e:	46bd      	mov	sp, r7
 8001280:	b004      	add	sp, #16
 8001282:	bd80      	pop	{r7, pc}

08001284 <lcd_puts>:
static void lcd_puts(const char *s) { while(*s) lcd_data((uint8_t)*s++); }
 8001284:	b580      	push	{r7, lr}
 8001286:	b082      	sub	sp, #8
 8001288:	af00      	add	r7, sp, #0
 800128a:	6078      	str	r0, [r7, #4]
 800128c:	e006      	b.n	800129c <lcd_puts+0x18>
 800128e:	687b      	ldr	r3, [r7, #4]
 8001290:	1c5a      	adds	r2, r3, #1
 8001292:	607a      	str	r2, [r7, #4]
 8001294:	781b      	ldrb	r3, [r3, #0]
 8001296:	0018      	movs	r0, r3
 8001298:	f7ff ff36 	bl	8001108 <lcd_data>
 800129c:	687b      	ldr	r3, [r7, #4]
 800129e:	781b      	ldrb	r3, [r3, #0]
 80012a0:	2b00      	cmp	r3, #0
 80012a2:	d1f4      	bne.n	800128e <lcd_puts+0xa>
 80012a4:	46c0      	nop			@ (mov r8, r8)
 80012a6:	46c0      	nop			@ (mov r8, r8)
 80012a8:	46bd      	mov	sp, r7
 80012aa:	b002      	add	sp, #8
 80012ac:	bd80      	pop	{r7, pc}

080012ae <lcd_puts_len>:
static void lcd_puts_len(const char* s, uint8_t len)
{
 80012ae:	b580      	push	{r7, lr}
 80012b0:	b084      	sub	sp, #16
 80012b2:	af00      	add	r7, sp, #0
 80012b4:	6078      	str	r0, [r7, #4]
 80012b6:	000a      	movs	r2, r1
 80012b8:	1cfb      	adds	r3, r7, #3
 80012ba:	701a      	strb	r2, [r3, #0]
  for(uint8_t i=0;i<len;i++){
 80012bc:	230f      	movs	r3, #15
 80012be:	18fb      	adds	r3, r7, r3
 80012c0:	2200      	movs	r2, #0
 80012c2:	701a      	strb	r2, [r3, #0]
 80012c4:	e01c      	b.n	8001300 <lcd_puts_len+0x52>
    char c = s[i];
 80012c6:	230f      	movs	r3, #15
 80012c8:	18fb      	adds	r3, r7, r3
 80012ca:	781b      	ldrb	r3, [r3, #0]
 80012cc:	687a      	ldr	r2, [r7, #4]
 80012ce:	18d2      	adds	r2, r2, r3
 80012d0:	210e      	movs	r1, #14
 80012d2:	187b      	adds	r3, r7, r1
 80012d4:	7812      	ldrb	r2, [r2, #0]
 80012d6:	701a      	strb	r2, [r3, #0]
    if (!c) { lcd_data(' '); }
 80012d8:	187b      	adds	r3, r7, r1
 80012da:	781b      	ldrb	r3, [r3, #0]
 80012dc:	2b00      	cmp	r3, #0
 80012de:	d103      	bne.n	80012e8 <lcd_puts_len+0x3a>
 80012e0:	2020      	movs	r0, #32
 80012e2:	f7ff ff11 	bl	8001108 <lcd_data>
 80012e6:	e005      	b.n	80012f4 <lcd_puts_len+0x46>
    else lcd_data((uint8_t)c);
 80012e8:	230e      	movs	r3, #14
 80012ea:	18fb      	adds	r3, r7, r3
 80012ec:	781b      	ldrb	r3, [r3, #0]
 80012ee:	0018      	movs	r0, r3
 80012f0:	f7ff ff0a 	bl	8001108 <lcd_data>
  for(uint8_t i=0;i<len;i++){
 80012f4:	210f      	movs	r1, #15
 80012f6:	187b      	adds	r3, r7, r1
 80012f8:	781a      	ldrb	r2, [r3, #0]
 80012fa:	187b      	adds	r3, r7, r1
 80012fc:	3201      	adds	r2, #1
 80012fe:	701a      	strb	r2, [r3, #0]
 8001300:	230f      	movs	r3, #15
 8001302:	18fa      	adds	r2, r7, r3
 8001304:	1cfb      	adds	r3, r7, #3
 8001306:	7812      	ldrb	r2, [r2, #0]
 8001308:	781b      	ldrb	r3, [r3, #0]
 800130a:	429a      	cmp	r2, r3
 800130c:	d3db      	bcc.n	80012c6 <lcd_puts_len+0x18>
  }
}
 800130e:	46c0      	nop			@ (mov r8, r8)
 8001310:	46c0      	nop			@ (mov r8, r8)
 8001312:	46bd      	mov	sp, r7
 8001314:	b004      	add	sp, #16
 8001316:	bd80      	pop	{r7, pc}

08001318 <btn_handle_event>:

/* ===================== Botón B1 ===================== */
static void btn_handle_event(btn_evt_t e)
{
 8001318:	b580      	push	{r7, lr}
 800131a:	b082      	sub	sp, #8
 800131c:	af00      	add	r7, sp, #0
 800131e:	0002      	movs	r2, r0
 8001320:	1dfb      	adds	r3, r7, #7
 8001322:	701a      	strb	r2, [r3, #0]
  if (e == BTN_EVT_NONE) return;
 8001324:	1dfb      	adds	r3, r7, #7
 8001326:	781b      	ldrb	r3, [r3, #0]
 8001328:	2b00      	cmp	r3, #0
 800132a:	d100      	bne.n	800132e <btn_handle_event+0x16>
 800132c:	e0a3      	b.n	8001476 <btn_handle_event+0x15e>

  switch(e) {
 800132e:	1dfb      	adds	r3, r7, #7
 8001330:	781b      	ldrb	r3, [r3, #0]
 8001332:	2b03      	cmp	r3, #3
 8001334:	d100      	bne.n	8001338 <btn_handle_event+0x20>
 8001336:	e06f      	b.n	8001418 <btn_handle_event+0x100>
 8001338:	dd00      	ble.n	800133c <btn_handle_event+0x24>
 800133a:	e09e      	b.n	800147a <btn_handle_event+0x162>
 800133c:	2b01      	cmp	r3, #1
 800133e:	d003      	beq.n	8001348 <btn_handle_event+0x30>
 8001340:	2b02      	cmp	r3, #2
 8001342:	d100      	bne.n	8001346 <btn_handle_event+0x2e>
 8001344:	e09b      	b.n	800147e <btn_handle_event+0x166>
        servo_stop();
        ui_dirty = true;
      }
      break;

    default: break;
 8001346:	e098      	b.n	800147a <btn_handle_event+0x162>
      if (app == APP_IDLE) {
 8001348:	4b50      	ldr	r3, [pc, #320]	@ (800148c <btn_handle_event+0x174>)
 800134a:	781b      	ldrb	r3, [r3, #0]
 800134c:	b2db      	uxtb	r3, r3
 800134e:	2b00      	cmp	r3, #0
 8001350:	d116      	bne.n	8001380 <btn_handle_event+0x68>
        app = APP_MENU;
 8001352:	4b4e      	ldr	r3, [pc, #312]	@ (800148c <btn_handle_event+0x174>)
 8001354:	2201      	movs	r2, #1
 8001356:	701a      	strb	r2, [r3, #0]
        if (bebida < 1 || bebida > 4) bebida = 1;
 8001358:	4b4d      	ldr	r3, [pc, #308]	@ (8001490 <btn_handle_event+0x178>)
 800135a:	781b      	ldrb	r3, [r3, #0]
 800135c:	b2db      	uxtb	r3, r3
 800135e:	2b00      	cmp	r3, #0
 8001360:	d004      	beq.n	800136c <btn_handle_event+0x54>
 8001362:	4b4b      	ldr	r3, [pc, #300]	@ (8001490 <btn_handle_event+0x178>)
 8001364:	781b      	ldrb	r3, [r3, #0]
 8001366:	b2db      	uxtb	r3, r3
 8001368:	2b04      	cmp	r3, #4
 800136a:	d902      	bls.n	8001372 <btn_handle_event+0x5a>
 800136c:	4b48      	ldr	r3, [pc, #288]	@ (8001490 <btn_handle_event+0x178>)
 800136e:	2201      	movs	r2, #1
 8001370:	701a      	strb	r2, [r3, #0]
        bebida_ok = false;
 8001372:	4b48      	ldr	r3, [pc, #288]	@ (8001494 <btn_handle_event+0x17c>)
 8001374:	2200      	movs	r2, #0
 8001376:	701a      	strb	r2, [r3, #0]
        ui_dirty = true;
 8001378:	4b47      	ldr	r3, [pc, #284]	@ (8001498 <btn_handle_event+0x180>)
 800137a:	2201      	movs	r2, #1
 800137c:	701a      	strb	r2, [r3, #0]
      break;
 800137e:	e080      	b.n	8001482 <btn_handle_event+0x16a>
      } else if (app == APP_MENU) {
 8001380:	4b42      	ldr	r3, [pc, #264]	@ (800148c <btn_handle_event+0x174>)
 8001382:	781b      	ldrb	r3, [r3, #0]
 8001384:	b2db      	uxtb	r3, r3
 8001386:	2b01      	cmp	r3, #1
 8001388:	d11b      	bne.n	80013c2 <btn_handle_event+0xaa>
        if (bebida == 0 || bebida >= 4) bebida = 1;
 800138a:	4b41      	ldr	r3, [pc, #260]	@ (8001490 <btn_handle_event+0x178>)
 800138c:	781b      	ldrb	r3, [r3, #0]
 800138e:	b2db      	uxtb	r3, r3
 8001390:	2b00      	cmp	r3, #0
 8001392:	d004      	beq.n	800139e <btn_handle_event+0x86>
 8001394:	4b3e      	ldr	r3, [pc, #248]	@ (8001490 <btn_handle_event+0x178>)
 8001396:	781b      	ldrb	r3, [r3, #0]
 8001398:	b2db      	uxtb	r3, r3
 800139a:	2b03      	cmp	r3, #3
 800139c:	d903      	bls.n	80013a6 <btn_handle_event+0x8e>
 800139e:	4b3c      	ldr	r3, [pc, #240]	@ (8001490 <btn_handle_event+0x178>)
 80013a0:	2201      	movs	r2, #1
 80013a2:	701a      	strb	r2, [r3, #0]
 80013a4:	e006      	b.n	80013b4 <btn_handle_event+0x9c>
        else bebida++;
 80013a6:	4b3a      	ldr	r3, [pc, #232]	@ (8001490 <btn_handle_event+0x178>)
 80013a8:	781b      	ldrb	r3, [r3, #0]
 80013aa:	b2db      	uxtb	r3, r3
 80013ac:	3301      	adds	r3, #1
 80013ae:	b2da      	uxtb	r2, r3
 80013b0:	4b37      	ldr	r3, [pc, #220]	@ (8001490 <btn_handle_event+0x178>)
 80013b2:	701a      	strb	r2, [r3, #0]
        bebida_ok = false;
 80013b4:	4b37      	ldr	r3, [pc, #220]	@ (8001494 <btn_handle_event+0x17c>)
 80013b6:	2200      	movs	r2, #0
 80013b8:	701a      	strb	r2, [r3, #0]
        ui_dirty = true;
 80013ba:	4b37      	ldr	r3, [pc, #220]	@ (8001498 <btn_handle_event+0x180>)
 80013bc:	2201      	movs	r2, #1
 80013be:	701a      	strb	r2, [r3, #0]
      break;
 80013c0:	e05f      	b.n	8001482 <btn_handle_event+0x16a>
      } else if (app == APP_SIZE) {
 80013c2:	4b32      	ldr	r3, [pc, #200]	@ (800148c <btn_handle_event+0x174>)
 80013c4:	781b      	ldrb	r3, [r3, #0]
 80013c6:	b2db      	uxtb	r3, r3
 80013c8:	2b02      	cmp	r3, #2
 80013ca:	d119      	bne.n	8001400 <btn_handle_event+0xe8>
        if (bebida < 1 || bebida > 4) bebida = 1;
 80013cc:	4b30      	ldr	r3, [pc, #192]	@ (8001490 <btn_handle_event+0x178>)
 80013ce:	781b      	ldrb	r3, [r3, #0]
 80013d0:	b2db      	uxtb	r3, r3
 80013d2:	2b00      	cmp	r3, #0
 80013d4:	d004      	beq.n	80013e0 <btn_handle_event+0xc8>
 80013d6:	4b2e      	ldr	r3, [pc, #184]	@ (8001490 <btn_handle_event+0x178>)
 80013d8:	781b      	ldrb	r3, [r3, #0]
 80013da:	b2db      	uxtb	r3, r3
 80013dc:	2b04      	cmp	r3, #4
 80013de:	d902      	bls.n	80013e6 <btn_handle_event+0xce>
 80013e0:	4b2b      	ldr	r3, [pc, #172]	@ (8001490 <btn_handle_event+0x178>)
 80013e2:	2201      	movs	r2, #1
 80013e4:	701a      	strb	r2, [r3, #0]
        start_bebida(bebida);
 80013e6:	4b2a      	ldr	r3, [pc, #168]	@ (8001490 <btn_handle_event+0x178>)
 80013e8:	781b      	ldrb	r3, [r3, #0]
 80013ea:	b2db      	uxtb	r3, r3
 80013ec:	0018      	movs	r0, r3
 80013ee:	f7ff fbad 	bl	8000b4c <start_bebida>
        app = APP_RUN;
 80013f2:	4b26      	ldr	r3, [pc, #152]	@ (800148c <btn_handle_event+0x174>)
 80013f4:	2203      	movs	r2, #3
 80013f6:	701a      	strb	r2, [r3, #0]
        ui_dirty = true;
 80013f8:	4b27      	ldr	r3, [pc, #156]	@ (8001498 <btn_handle_event+0x180>)
 80013fa:	2201      	movs	r2, #1
 80013fc:	701a      	strb	r2, [r3, #0]
      break;
 80013fe:	e040      	b.n	8001482 <btn_handle_event+0x16a>
      } else if (app == APP_DONE) {
 8001400:	4b22      	ldr	r3, [pc, #136]	@ (800148c <btn_handle_event+0x174>)
 8001402:	781b      	ldrb	r3, [r3, #0]
 8001404:	b2db      	uxtb	r3, r3
 8001406:	2b05      	cmp	r3, #5
 8001408:	d13b      	bne.n	8001482 <btn_handle_event+0x16a>
        app = APP_MENU;
 800140a:	4b20      	ldr	r3, [pc, #128]	@ (800148c <btn_handle_event+0x174>)
 800140c:	2201      	movs	r2, #1
 800140e:	701a      	strb	r2, [r3, #0]
        ui_dirty = true;
 8001410:	4b21      	ldr	r3, [pc, #132]	@ (8001498 <btn_handle_event+0x180>)
 8001412:	2201      	movs	r2, #1
 8001414:	701a      	strb	r2, [r3, #0]
      break;
 8001416:	e034      	b.n	8001482 <btn_handle_event+0x16a>
      if (app == APP_MENU) {
 8001418:	4b1c      	ldr	r3, [pc, #112]	@ (800148c <btn_handle_event+0x174>)
 800141a:	781b      	ldrb	r3, [r3, #0]
 800141c:	b2db      	uxtb	r3, r3
 800141e:	2b01      	cmp	r3, #1
 8001420:	d106      	bne.n	8001430 <btn_handle_event+0x118>
        app = APP_SIZE;
 8001422:	4b1a      	ldr	r3, [pc, #104]	@ (800148c <btn_handle_event+0x174>)
 8001424:	2202      	movs	r2, #2
 8001426:	701a      	strb	r2, [r3, #0]
        ui_dirty = true;
 8001428:	4b1b      	ldr	r3, [pc, #108]	@ (8001498 <btn_handle_event+0x180>)
 800142a:	2201      	movs	r2, #1
 800142c:	701a      	strb	r2, [r3, #0]
      break;
 800142e:	e029      	b.n	8001484 <btn_handle_event+0x16c>
        app = APP_IDLE;
 8001430:	4b16      	ldr	r3, [pc, #88]	@ (800148c <btn_handle_event+0x174>)
 8001432:	2200      	movs	r2, #0
 8001434:	701a      	strb	r2, [r3, #0]
        bebida=0; bebida_ok=false; size_sel=2; size_ok=false;
 8001436:	4b16      	ldr	r3, [pc, #88]	@ (8001490 <btn_handle_event+0x178>)
 8001438:	2200      	movs	r2, #0
 800143a:	701a      	strb	r2, [r3, #0]
 800143c:	4b15      	ldr	r3, [pc, #84]	@ (8001494 <btn_handle_event+0x17c>)
 800143e:	2200      	movs	r2, #0
 8001440:	701a      	strb	r2, [r3, #0]
 8001442:	4b16      	ldr	r3, [pc, #88]	@ (800149c <btn_handle_event+0x184>)
 8001444:	2202      	movs	r2, #2
 8001446:	701a      	strb	r2, [r3, #0]
 8001448:	4b15      	ldr	r3, [pc, #84]	@ (80014a0 <btn_handle_event+0x188>)
 800144a:	2200      	movs	r2, #0
 800144c:	701a      	strb	r2, [r3, #0]
        t_total_ms = t_phase_ms = t_rem_ms = t_phase_rem_ms = 0;
 800144e:	2300      	movs	r3, #0
 8001450:	4a14      	ldr	r2, [pc, #80]	@ (80014a4 <btn_handle_event+0x18c>)
 8001452:	6013      	str	r3, [r2, #0]
 8001454:	4a14      	ldr	r2, [pc, #80]	@ (80014a8 <btn_handle_event+0x190>)
 8001456:	6013      	str	r3, [r2, #0]
 8001458:	4a14      	ldr	r2, [pc, #80]	@ (80014ac <btn_handle_event+0x194>)
 800145a:	6013      	str	r3, [r2, #0]
 800145c:	4a14      	ldr	r2, [pc, #80]	@ (80014b0 <btn_handle_event+0x198>)
 800145e:	6013      	str	r3, [r2, #0]
        set_leds(false,false,false);
 8001460:	2200      	movs	r2, #0
 8001462:	2100      	movs	r1, #0
 8001464:	2000      	movs	r0, #0
 8001466:	f7ff faf9 	bl	8000a5c <set_leds>
        servo_stop();
 800146a:	f7ff faeb 	bl	8000a44 <servo_stop>
        ui_dirty = true;
 800146e:	4b0a      	ldr	r3, [pc, #40]	@ (8001498 <btn_handle_event+0x180>)
 8001470:	2201      	movs	r2, #1
 8001472:	701a      	strb	r2, [r3, #0]
      break;
 8001474:	e006      	b.n	8001484 <btn_handle_event+0x16c>
  if (e == BTN_EVT_NONE) return;
 8001476:	46c0      	nop			@ (mov r8, r8)
 8001478:	e004      	b.n	8001484 <btn_handle_event+0x16c>
    default: break;
 800147a:	46c0      	nop			@ (mov r8, r8)
 800147c:	e002      	b.n	8001484 <btn_handle_event+0x16c>
      break;
 800147e:	46c0      	nop			@ (mov r8, r8)
 8001480:	e000      	b.n	8001484 <btn_handle_event+0x16c>
      break;
 8001482:	46c0      	nop			@ (mov r8, r8)
  }
}
 8001484:	46bd      	mov	sp, r7
 8001486:	b002      	add	sp, #8
 8001488:	bd80      	pop	{r7, pc}
 800148a:	46c0      	nop			@ (mov r8, r8)
 800148c:	20000094 	.word	0x20000094
 8001490:	20000096 	.word	0x20000096
 8001494:	20000097 	.word	0x20000097
 8001498:	20000002 	.word	0x20000002
 800149c:	20000001 	.word	0x20000001
 80014a0:	20000098 	.word	0x20000098
 80014a4:	200000a8 	.word	0x200000a8
 80014a8:	200000a4 	.word	0x200000a4
 80014ac:	200000a0 	.word	0x200000a0
 80014b0:	2000009c 	.word	0x2000009c

080014b4 <btn_poll_and_dispatch>:

static void btn_poll_and_dispatch(void)
{
 80014b4:	b580      	push	{r7, lr}
 80014b6:	b082      	sub	sp, #8
 80014b8:	af00      	add	r7, sp, #0
  uint8_t raw = (BTN_PORT->IDR & BTN_PIN) ? 1 : 0;
 80014ba:	4b3a      	ldr	r3, [pc, #232]	@ (80015a4 <btn_poll_and_dispatch+0xf0>)
 80014bc:	691a      	ldr	r2, [r3, #16]
 80014be:	2380      	movs	r3, #128	@ 0x80
 80014c0:	019b      	lsls	r3, r3, #6
 80014c2:	4013      	ands	r3, r2
 80014c4:	1e5a      	subs	r2, r3, #1
 80014c6:	4193      	sbcs	r3, r2
 80014c8:	b2da      	uxtb	r2, r3
 80014ca:	1dfb      	adds	r3, r7, #7
 80014cc:	701a      	strb	r2, [r3, #0]

  if (raw != btn_last_raw) {
 80014ce:	4b36      	ldr	r3, [pc, #216]	@ (80015a8 <btn_poll_and_dispatch+0xf4>)
 80014d0:	781b      	ldrb	r3, [r3, #0]
 80014d2:	1dfa      	adds	r2, r7, #7
 80014d4:	7812      	ldrb	r2, [r2, #0]
 80014d6:	429a      	cmp	r2, r3
 80014d8:	d007      	beq.n	80014ea <btn_poll_and_dispatch+0x36>
    btn_last_raw = raw;
 80014da:	4b33      	ldr	r3, [pc, #204]	@ (80015a8 <btn_poll_and_dispatch+0xf4>)
 80014dc:	1dfa      	adds	r2, r7, #7
 80014de:	7812      	ldrb	r2, [r2, #0]
 80014e0:	701a      	strb	r2, [r3, #0]
    btn_db_cnt = 0;
 80014e2:	4b32      	ldr	r3, [pc, #200]	@ (80015ac <btn_poll_and_dispatch+0xf8>)
 80014e4:	2200      	movs	r2, #0
 80014e6:	701a      	strb	r2, [r3, #0]
 80014e8:	e009      	b.n	80014fe <btn_poll_and_dispatch+0x4a>
  } else if (btn_db_cnt < BTN_DEBOUNCE_MS) {
 80014ea:	4b30      	ldr	r3, [pc, #192]	@ (80015ac <btn_poll_and_dispatch+0xf8>)
 80014ec:	781b      	ldrb	r3, [r3, #0]
 80014ee:	2b04      	cmp	r3, #4
 80014f0:	d805      	bhi.n	80014fe <btn_poll_and_dispatch+0x4a>
    btn_db_cnt++;
 80014f2:	4b2e      	ldr	r3, [pc, #184]	@ (80015ac <btn_poll_and_dispatch+0xf8>)
 80014f4:	781b      	ldrb	r3, [r3, #0]
 80014f6:	3301      	adds	r3, #1
 80014f8:	b2da      	uxtb	r2, r3
 80014fa:	4b2c      	ldr	r3, [pc, #176]	@ (80015ac <btn_poll_and_dispatch+0xf8>)
 80014fc:	701a      	strb	r2, [r3, #0]
  }

  if (btn_db_cnt == BTN_DEBOUNCE_MS) {
 80014fe:	4b2b      	ldr	r3, [pc, #172]	@ (80015ac <btn_poll_and_dispatch+0xf8>)
 8001500:	781b      	ldrb	r3, [r3, #0]
 8001502:	2b05      	cmp	r3, #5
 8001504:	d14a      	bne.n	800159c <btn_poll_and_dispatch+0xe8>
    if (!btn_stable && raw) {
 8001506:	4b2a      	ldr	r3, [pc, #168]	@ (80015b0 <btn_poll_and_dispatch+0xfc>)
 8001508:	781b      	ldrb	r3, [r3, #0]
 800150a:	2b00      	cmp	r3, #0
 800150c:	d10e      	bne.n	800152c <btn_poll_and_dispatch+0x78>
 800150e:	1dfb      	adds	r3, r7, #7
 8001510:	781b      	ldrb	r3, [r3, #0]
 8001512:	2b00      	cmp	r3, #0
 8001514:	d00a      	beq.n	800152c <btn_poll_and_dispatch+0x78>
      btn_stable = 1;
 8001516:	4b26      	ldr	r3, [pc, #152]	@ (80015b0 <btn_poll_and_dispatch+0xfc>)
 8001518:	2201      	movs	r2, #1
 800151a:	701a      	strb	r2, [r3, #0]
      btn_down = 1;
 800151c:	4b25      	ldr	r3, [pc, #148]	@ (80015b4 <btn_poll_and_dispatch+0x100>)
 800151e:	2201      	movs	r2, #1
 8001520:	701a      	strb	r2, [r3, #0]
      btn_down_ms = ms;
 8001522:	4b25      	ldr	r3, [pc, #148]	@ (80015b8 <btn_poll_and_dispatch+0x104>)
 8001524:	681a      	ldr	r2, [r3, #0]
 8001526:	4b25      	ldr	r3, [pc, #148]	@ (80015bc <btn_poll_and_dispatch+0x108>)
 8001528:	601a      	str	r2, [r3, #0]
          btn_last_rel = ms;
        }
      }
    }
  }
}
 800152a:	e037      	b.n	800159c <btn_poll_and_dispatch+0xe8>
    } else if (btn_stable && !raw) {
 800152c:	4b20      	ldr	r3, [pc, #128]	@ (80015b0 <btn_poll_and_dispatch+0xfc>)
 800152e:	781b      	ldrb	r3, [r3, #0]
 8001530:	2b00      	cmp	r3, #0
 8001532:	d033      	beq.n	800159c <btn_poll_and_dispatch+0xe8>
 8001534:	1dfb      	adds	r3, r7, #7
 8001536:	781b      	ldrb	r3, [r3, #0]
 8001538:	2b00      	cmp	r3, #0
 800153a:	d12f      	bne.n	800159c <btn_poll_and_dispatch+0xe8>
      btn_stable = 0;
 800153c:	4b1c      	ldr	r3, [pc, #112]	@ (80015b0 <btn_poll_and_dispatch+0xfc>)
 800153e:	2200      	movs	r2, #0
 8001540:	701a      	strb	r2, [r3, #0]
      uint32_t dur = ms - btn_down_ms;
 8001542:	4b1d      	ldr	r3, [pc, #116]	@ (80015b8 <btn_poll_and_dispatch+0x104>)
 8001544:	681a      	ldr	r2, [r3, #0]
 8001546:	4b1d      	ldr	r3, [pc, #116]	@ (80015bc <btn_poll_and_dispatch+0x108>)
 8001548:	681b      	ldr	r3, [r3, #0]
 800154a:	1ad3      	subs	r3, r2, r3
 800154c:	603b      	str	r3, [r7, #0]
      btn_down = 0;
 800154e:	4b19      	ldr	r3, [pc, #100]	@ (80015b4 <btn_poll_and_dispatch+0x100>)
 8001550:	2200      	movs	r2, #0
 8001552:	701a      	strb	r2, [r3, #0]
      if (dur >= BTN_LONG_MS) {
 8001554:	683a      	ldr	r2, [r7, #0]
 8001556:	2396      	movs	r3, #150	@ 0x96
 8001558:	00db      	lsls	r3, r3, #3
 800155a:	429a      	cmp	r2, r3
 800155c:	d307      	bcc.n	800156e <btn_poll_and_dispatch+0xba>
        btn_handle_event(BTN_EVT_LONG);
 800155e:	2003      	movs	r0, #3
 8001560:	f7ff feda 	bl	8001318 <btn_handle_event>
        btn_last_rel = ms;
 8001564:	4b14      	ldr	r3, [pc, #80]	@ (80015b8 <btn_poll_and_dispatch+0x104>)
 8001566:	681a      	ldr	r2, [r3, #0]
 8001568:	4b15      	ldr	r3, [pc, #84]	@ (80015c0 <btn_poll_and_dispatch+0x10c>)
 800156a:	601a      	str	r2, [r3, #0]
}
 800156c:	e016      	b.n	800159c <btn_poll_and_dispatch+0xe8>
        if ((ms - btn_last_rel) <= BTN_DOUBLE_MS) {
 800156e:	4b12      	ldr	r3, [pc, #72]	@ (80015b8 <btn_poll_and_dispatch+0x104>)
 8001570:	681a      	ldr	r2, [r3, #0]
 8001572:	4b13      	ldr	r3, [pc, #76]	@ (80015c0 <btn_poll_and_dispatch+0x10c>)
 8001574:	681b      	ldr	r3, [r3, #0]
 8001576:	1ad2      	subs	r2, r2, r3
 8001578:	23fa      	movs	r3, #250	@ 0xfa
 800157a:	005b      	lsls	r3, r3, #1
 800157c:	429a      	cmp	r2, r3
 800157e:	d806      	bhi.n	800158e <btn_poll_and_dispatch+0xda>
          btn_handle_event(BTN_EVT_DOUBLE);
 8001580:	2002      	movs	r0, #2
 8001582:	f7ff fec9 	bl	8001318 <btn_handle_event>
          btn_last_rel = 0;
 8001586:	4b0e      	ldr	r3, [pc, #56]	@ (80015c0 <btn_poll_and_dispatch+0x10c>)
 8001588:	2200      	movs	r2, #0
 800158a:	601a      	str	r2, [r3, #0]
}
 800158c:	e006      	b.n	800159c <btn_poll_and_dispatch+0xe8>
          btn_handle_event(BTN_EVT_SINGLE);
 800158e:	2001      	movs	r0, #1
 8001590:	f7ff fec2 	bl	8001318 <btn_handle_event>
          btn_last_rel = ms;
 8001594:	4b08      	ldr	r3, [pc, #32]	@ (80015b8 <btn_poll_and_dispatch+0x104>)
 8001596:	681a      	ldr	r2, [r3, #0]
 8001598:	4b09      	ldr	r3, [pc, #36]	@ (80015c0 <btn_poll_and_dispatch+0x10c>)
 800159a:	601a      	str	r2, [r3, #0]
}
 800159c:	46c0      	nop			@ (mov r8, r8)
 800159e:	46bd      	mov	sp, r7
 80015a0:	b002      	add	sp, #8
 80015a2:	bd80      	pop	{r7, pc}
 80015a4:	50000800 	.word	0x50000800
 80015a8:	200000b9 	.word	0x200000b9
 80015ac:	200000bb 	.word	0x200000bb
 80015b0:	200000ba 	.word	0x200000ba
 80015b4:	200000bc 	.word	0x200000bc
 80015b8:	20000090 	.word	0x20000090
 80015bc:	200000c0 	.word	0x200000c0
 80015c0:	200000c4 	.word	0x200000c4

080015c4 <adc_init_pa0>:

/* ===================== Slider / ADC (PA0) ===================== */
#if (SLIDER_ENABLE)
static void adc_init_pa0(void)
{
 80015c4:	b580      	push	{r7, lr}
 80015c6:	af00      	add	r7, sp, #0
  RCC->APB2ENR |= RCC_APB2ENR_ADCEN;
 80015c8:	4b1c      	ldr	r3, [pc, #112]	@ (800163c <adc_init_pa0+0x78>)
 80015ca:	6b5a      	ldr	r2, [r3, #52]	@ 0x34
 80015cc:	4b1b      	ldr	r3, [pc, #108]	@ (800163c <adc_init_pa0+0x78>)
 80015ce:	2180      	movs	r1, #128	@ 0x80
 80015d0:	0089      	lsls	r1, r1, #2
 80015d2:	430a      	orrs	r2, r1
 80015d4:	635a      	str	r2, [r3, #52]	@ 0x34

  if (ADC1->CR & ADC_CR_ADEN) {
 80015d6:	4b1a      	ldr	r3, [pc, #104]	@ (8001640 <adc_init_pa0+0x7c>)
 80015d8:	689b      	ldr	r3, [r3, #8]
 80015da:	2201      	movs	r2, #1
 80015dc:	4013      	ands	r3, r2
 80015de:	d00b      	beq.n	80015f8 <adc_init_pa0+0x34>
    ADC1->CR |= ADC_CR_ADDIS;
 80015e0:	4b17      	ldr	r3, [pc, #92]	@ (8001640 <adc_init_pa0+0x7c>)
 80015e2:	689a      	ldr	r2, [r3, #8]
 80015e4:	4b16      	ldr	r3, [pc, #88]	@ (8001640 <adc_init_pa0+0x7c>)
 80015e6:	2102      	movs	r1, #2
 80015e8:	430a      	orrs	r2, r1
 80015ea:	609a      	str	r2, [r3, #8]
    while (ADC1->CR & ADC_CR_ADEN);
 80015ec:	46c0      	nop			@ (mov r8, r8)
 80015ee:	4b14      	ldr	r3, [pc, #80]	@ (8001640 <adc_init_pa0+0x7c>)
 80015f0:	689b      	ldr	r3, [r3, #8]
 80015f2:	2201      	movs	r2, #1
 80015f4:	4013      	ands	r3, r2
 80015f6:	d1fa      	bne.n	80015ee <adc_init_pa0+0x2a>
  }

  ADC1->CR |= ADC_CR_ADCAL;
 80015f8:	4b11      	ldr	r3, [pc, #68]	@ (8001640 <adc_init_pa0+0x7c>)
 80015fa:	689a      	ldr	r2, [r3, #8]
 80015fc:	4b10      	ldr	r3, [pc, #64]	@ (8001640 <adc_init_pa0+0x7c>)
 80015fe:	2180      	movs	r1, #128	@ 0x80
 8001600:	0609      	lsls	r1, r1, #24
 8001602:	430a      	orrs	r2, r1
 8001604:	609a      	str	r2, [r3, #8]
  while (ADC1->CR & ADC_CR_ADCAL);
 8001606:	46c0      	nop			@ (mov r8, r8)
 8001608:	4b0d      	ldr	r3, [pc, #52]	@ (8001640 <adc_init_pa0+0x7c>)
 800160a:	689b      	ldr	r3, [r3, #8]
 800160c:	2b00      	cmp	r3, #0
 800160e:	dbfb      	blt.n	8001608 <adc_init_pa0+0x44>

  ADC1->SMPR = 0x07;  // 160.5 cycles -> lectura estable
 8001610:	4b0b      	ldr	r3, [pc, #44]	@ (8001640 <adc_init_pa0+0x7c>)
 8001612:	2207      	movs	r2, #7
 8001614:	615a      	str	r2, [r3, #20]
  ADC1->CHSELR = (1u << SLIDER_ADC_CH);
 8001616:	4b0a      	ldr	r3, [pc, #40]	@ (8001640 <adc_init_pa0+0x7c>)
 8001618:	2201      	movs	r2, #1
 800161a:	629a      	str	r2, [r3, #40]	@ 0x28

  ADC1->CR |= ADC_CR_ADEN;
 800161c:	4b08      	ldr	r3, [pc, #32]	@ (8001640 <adc_init_pa0+0x7c>)
 800161e:	689a      	ldr	r2, [r3, #8]
 8001620:	4b07      	ldr	r3, [pc, #28]	@ (8001640 <adc_init_pa0+0x7c>)
 8001622:	2101      	movs	r1, #1
 8001624:	430a      	orrs	r2, r1
 8001626:	609a      	str	r2, [r3, #8]
  while (!(ADC1->ISR & ADC_ISR_ADRDY));
 8001628:	46c0      	nop			@ (mov r8, r8)
 800162a:	4b05      	ldr	r3, [pc, #20]	@ (8001640 <adc_init_pa0+0x7c>)
 800162c:	681b      	ldr	r3, [r3, #0]
 800162e:	2201      	movs	r2, #1
 8001630:	4013      	ands	r3, r2
 8001632:	d0fa      	beq.n	800162a <adc_init_pa0+0x66>
}
 8001634:	46c0      	nop			@ (mov r8, r8)
 8001636:	46c0      	nop			@ (mov r8, r8)
 8001638:	46bd      	mov	sp, r7
 800163a:	bd80      	pop	{r7, pc}
 800163c:	40021000 	.word	0x40021000
 8001640:	40012400 	.word	0x40012400

08001644 <adc_read_once>:

static uint16_t adc_read_once(void)
{
 8001644:	b580      	push	{r7, lr}
 8001646:	af00      	add	r7, sp, #0
  ADC1->CR |= ADC_CR_ADSTART;
 8001648:	4b08      	ldr	r3, [pc, #32]	@ (800166c <adc_read_once+0x28>)
 800164a:	689a      	ldr	r2, [r3, #8]
 800164c:	4b07      	ldr	r3, [pc, #28]	@ (800166c <adc_read_once+0x28>)
 800164e:	2104      	movs	r1, #4
 8001650:	430a      	orrs	r2, r1
 8001652:	609a      	str	r2, [r3, #8]
  while (!(ADC1->ISR & ADC_ISR_EOC));
 8001654:	46c0      	nop			@ (mov r8, r8)
 8001656:	4b05      	ldr	r3, [pc, #20]	@ (800166c <adc_read_once+0x28>)
 8001658:	681b      	ldr	r3, [r3, #0]
 800165a:	2204      	movs	r2, #4
 800165c:	4013      	ands	r3, r2
 800165e:	d0fa      	beq.n	8001656 <adc_read_once+0x12>
  return (uint16_t)ADC1->DR;   // 12-bit 0..4095
 8001660:	4b02      	ldr	r3, [pc, #8]	@ (800166c <adc_read_once+0x28>)
 8001662:	6c1b      	ldr	r3, [r3, #64]	@ 0x40
 8001664:	b29b      	uxth	r3, r3
}
 8001666:	0018      	movs	r0, r3
 8001668:	46bd      	mov	sp, r7
 800166a:	bd80      	pop	{r7, pc}
 800166c:	40012400 	.word	0x40012400

08001670 <slider_sample_1x>:

static void slider_sample_1x(void)
{
 8001670:	b580      	push	{r7, lr}
 8001672:	b082      	sub	sp, #8
 8001674:	af00      	add	r7, sp, #0
  slider_raw = adc_read_once();
 8001676:	f7ff ffe5 	bl	8001644 <adc_read_once>
 800167a:	0003      	movs	r3, r0
 800167c:	001a      	movs	r2, r3
 800167e:	4b13      	ldr	r3, [pc, #76]	@ (80016cc <slider_sample_1x+0x5c>)
 8001680:	801a      	strh	r2, [r3, #0]

  if (slider_ema == 0) {
 8001682:	4b13      	ldr	r3, [pc, #76]	@ (80016d0 <slider_sample_1x+0x60>)
 8001684:	681b      	ldr	r3, [r3, #0]
 8001686:	2b00      	cmp	r3, #0
 8001688:	d106      	bne.n	8001698 <slider_sample_1x+0x28>
    slider_ema = ((uint32_t)slider_raw) << SLIDER_EMA_SHIFT;
 800168a:	4b10      	ldr	r3, [pc, #64]	@ (80016cc <slider_sample_1x+0x5c>)
 800168c:	881b      	ldrh	r3, [r3, #0]
 800168e:	b29b      	uxth	r3, r3
 8001690:	00da      	lsls	r2, r3, #3
 8001692:	4b0f      	ldr	r3, [pc, #60]	@ (80016d0 <slider_sample_1x+0x60>)
 8001694:	601a      	str	r2, [r3, #0]
 8001696:	e00f      	b.n	80016b8 <slider_sample_1x+0x48>
  } else {
    uint32_t ema = slider_ema;
 8001698:	4b0d      	ldr	r3, [pc, #52]	@ (80016d0 <slider_sample_1x+0x60>)
 800169a:	681b      	ldr	r3, [r3, #0]
 800169c:	607b      	str	r3, [r7, #4]
    ema += (((uint32_t)slider_raw << SLIDER_EMA_SHIFT) - ema) >> SLIDER_EMA_SHIFT;
 800169e:	4b0b      	ldr	r3, [pc, #44]	@ (80016cc <slider_sample_1x+0x5c>)
 80016a0:	881b      	ldrh	r3, [r3, #0]
 80016a2:	b29b      	uxth	r3, r3
 80016a4:	00da      	lsls	r2, r3, #3
 80016a6:	687b      	ldr	r3, [r7, #4]
 80016a8:	1ad3      	subs	r3, r2, r3
 80016aa:	08db      	lsrs	r3, r3, #3
 80016ac:	687a      	ldr	r2, [r7, #4]
 80016ae:	18d3      	adds	r3, r2, r3
 80016b0:	607b      	str	r3, [r7, #4]
    slider_ema = ema;
 80016b2:	4b07      	ldr	r3, [pc, #28]	@ (80016d0 <slider_sample_1x+0x60>)
 80016b4:	687a      	ldr	r2, [r7, #4]
 80016b6:	601a      	str	r2, [r3, #0]
  }
  slider_val = (uint16_t)(slider_ema >> SLIDER_EMA_SHIFT);
 80016b8:	4b05      	ldr	r3, [pc, #20]	@ (80016d0 <slider_sample_1x+0x60>)
 80016ba:	681b      	ldr	r3, [r3, #0]
 80016bc:	08db      	lsrs	r3, r3, #3
 80016be:	b29a      	uxth	r2, r3
 80016c0:	4b04      	ldr	r3, [pc, #16]	@ (80016d4 <slider_sample_1x+0x64>)
 80016c2:	801a      	strh	r2, [r3, #0]
}
 80016c4:	46c0      	nop			@ (mov r8, r8)
 80016c6:	46bd      	mov	sp, r7
 80016c8:	b002      	add	sp, #8
 80016ca:	bd80      	pop	{r7, pc}
 80016cc:	200000cc 	.word	0x200000cc
 80016d0:	200000c8 	.word	0x200000c8
 80016d4:	200000ce 	.word	0x200000ce

080016d8 <map_u16>:

static uint16_t map_u16(uint16_t x, uint16_t in_min, uint16_t in_max, uint16_t out_min, uint16_t out_max)
{
 80016d8:	b5b0      	push	{r4, r5, r7, lr}
 80016da:	b084      	sub	sp, #16
 80016dc:	af00      	add	r7, sp, #0
 80016de:	0005      	movs	r5, r0
 80016e0:	000c      	movs	r4, r1
 80016e2:	0010      	movs	r0, r2
 80016e4:	0019      	movs	r1, r3
 80016e6:	1dbb      	adds	r3, r7, #6
 80016e8:	1c2a      	adds	r2, r5, #0
 80016ea:	801a      	strh	r2, [r3, #0]
 80016ec:	1d3b      	adds	r3, r7, #4
 80016ee:	1c22      	adds	r2, r4, #0
 80016f0:	801a      	strh	r2, [r3, #0]
 80016f2:	1cbb      	adds	r3, r7, #2
 80016f4:	1c02      	adds	r2, r0, #0
 80016f6:	801a      	strh	r2, [r3, #0]
 80016f8:	003b      	movs	r3, r7
 80016fa:	1c0a      	adds	r2, r1, #0
 80016fc:	801a      	strh	r2, [r3, #0]
  if (x <= in_min) return out_min;
 80016fe:	1dba      	adds	r2, r7, #6
 8001700:	1d3b      	adds	r3, r7, #4
 8001702:	8812      	ldrh	r2, [r2, #0]
 8001704:	881b      	ldrh	r3, [r3, #0]
 8001706:	429a      	cmp	r2, r3
 8001708:	d802      	bhi.n	8001710 <map_u16+0x38>
 800170a:	003b      	movs	r3, r7
 800170c:	881b      	ldrh	r3, [r3, #0]
 800170e:	e027      	b.n	8001760 <map_u16+0x88>
  if (x >= in_max) return out_max;
 8001710:	1dba      	adds	r2, r7, #6
 8001712:	1cbb      	adds	r3, r7, #2
 8001714:	8812      	ldrh	r2, [r2, #0]
 8001716:	881b      	ldrh	r3, [r3, #0]
 8001718:	429a      	cmp	r2, r3
 800171a:	d303      	bcc.n	8001724 <map_u16+0x4c>
 800171c:	2320      	movs	r3, #32
 800171e:	18fb      	adds	r3, r7, r3
 8001720:	881b      	ldrh	r3, [r3, #0]
 8001722:	e01d      	b.n	8001760 <map_u16+0x88>
  uint32_t num = (uint32_t)(x - in_min) * (uint32_t)(out_max - out_min);
 8001724:	1dbb      	adds	r3, r7, #6
 8001726:	881a      	ldrh	r2, [r3, #0]
 8001728:	1d3b      	adds	r3, r7, #4
 800172a:	881b      	ldrh	r3, [r3, #0]
 800172c:	1ad3      	subs	r3, r2, r3
 800172e:	0019      	movs	r1, r3
 8001730:	2320      	movs	r3, #32
 8001732:	18fb      	adds	r3, r7, r3
 8001734:	881a      	ldrh	r2, [r3, #0]
 8001736:	003b      	movs	r3, r7
 8001738:	881b      	ldrh	r3, [r3, #0]
 800173a:	1ad3      	subs	r3, r2, r3
 800173c:	434b      	muls	r3, r1
 800173e:	60fb      	str	r3, [r7, #12]
  uint32_t den = (uint32_t)(in_max - in_min);
 8001740:	1cbb      	adds	r3, r7, #2
 8001742:	881a      	ldrh	r2, [r3, #0]
 8001744:	1d3b      	adds	r3, r7, #4
 8001746:	881b      	ldrh	r3, [r3, #0]
 8001748:	1ad3      	subs	r3, r2, r3
 800174a:	60bb      	str	r3, [r7, #8]
  return (uint16_t)(out_min + num / den);
 800174c:	68b9      	ldr	r1, [r7, #8]
 800174e:	68f8      	ldr	r0, [r7, #12]
 8001750:	f7fe fcec 	bl	800012c <__udivsi3>
 8001754:	0003      	movs	r3, r0
 8001756:	b29a      	uxth	r2, r3
 8001758:	003b      	movs	r3, r7
 800175a:	881b      	ldrh	r3, [r3, #0]
 800175c:	18d3      	adds	r3, r2, r3
 800175e:	b29b      	uxth	r3, r3
}
 8001760:	0018      	movs	r0, r3
 8001762:	46bd      	mov	sp, r7
 8001764:	b004      	add	sp, #16
 8001766:	bdb0      	pop	{r4, r5, r7, pc}

08001768 <NMI_Handler>:
/******************************************************************************/
/**
  * @brief This function handles Non maskable interrupt.
  */
void NMI_Handler(void)
{
 8001768:	b580      	push	{r7, lr}
 800176a:	af00      	add	r7, sp, #0
  /* USER CODE BEGIN NonMaskableInt_IRQn 0 */

  /* USER CODE END NonMaskableInt_IRQn 0 */
  /* USER CODE BEGIN NonMaskableInt_IRQn 1 */
   while (1)
 800176c:	46c0      	nop			@ (mov r8, r8)
 800176e:	e7fd      	b.n	800176c <NMI_Handler+0x4>

08001770 <HardFault_Handler>:

/**
  * @brief This function handles Hard fault interrupt.
  */
void HardFault_Handler(void)
{
 8001770:	b580      	push	{r7, lr}
 8001772:	af00      	add	r7, sp, #0
  /* USER CODE BEGIN HardFault_IRQn 0 */

  /* USER CODE END HardFault_IRQn 0 */
  while (1)
 8001774:	46c0      	nop			@ (mov r8, r8)
 8001776:	e7fd      	b.n	8001774 <HardFault_Handler+0x4>

08001778 <SVC_Handler>:

/**
  * @brief This function handles System service call via SWI instruction.
  */
void SVC_Handler(void)
{
 8001778:	b580      	push	{r7, lr}
 800177a:	af00      	add	r7, sp, #0

  /* USER CODE END SVC_IRQn 0 */
  /* USER CODE BEGIN SVC_IRQn 1 */

  /* USER CODE END SVC_IRQn 1 */
}
 800177c:	46c0      	nop			@ (mov r8, r8)
 800177e:	46bd      	mov	sp, r7
 8001780:	bd80      	pop	{r7, pc}

08001782 <PendSV_Handler>:

/**
  * @brief This function handles Pendable request for system service.
  */
void PendSV_Handler(void)
{
 8001782:	b580      	push	{r7, lr}
 8001784:	af00      	add	r7, sp, #0

  /* USER CODE END PendSV_IRQn 0 */
  /* USER CODE BEGIN PendSV_IRQn 1 */

  /* USER CODE END PendSV_IRQn 1 */
}
 8001786:	46c0      	nop			@ (mov r8, r8)
 8001788:	46bd      	mov	sp, r7
 800178a:	bd80      	pop	{r7, pc}

0800178c <_sbrk>:
 *
 * @param incr Memory size
 * @return Pointer to allocated memory
 */
void *_sbrk(ptrdiff_t incr)
{
 800178c:	b580      	push	{r7, lr}
 800178e:	b086      	sub	sp, #24
 8001790:	af00      	add	r7, sp, #0
 8001792:	6078      	str	r0, [r7, #4]
  extern uint8_t _end; /* Symbol defined in the linker script */
  extern uint8_t _estack; /* Symbol defined in the linker script */
  extern uint32_t _Min_Stack_Size; /* Symbol defined in the linker script */
  const uint32_t stack_limit = (uint32_t)&_estack - (uint32_t)&_Min_Stack_Size;
 8001794:	4a14      	ldr	r2, [pc, #80]	@ (80017e8 <_sbrk+0x5c>)
 8001796:	4b15      	ldr	r3, [pc, #84]	@ (80017ec <_sbrk+0x60>)
 8001798:	1ad3      	subs	r3, r2, r3
 800179a:	617b      	str	r3, [r7, #20]
  const uint8_t *max_heap = (uint8_t *)stack_limit;
 800179c:	697b      	ldr	r3, [r7, #20]
 800179e:	613b      	str	r3, [r7, #16]
  uint8_t *prev_heap_end;

  /* Initialize heap end at first call */
  if (NULL == __sbrk_heap_end)
 80017a0:	4b13      	ldr	r3, [pc, #76]	@ (80017f0 <_sbrk+0x64>)
 80017a2:	681b      	ldr	r3, [r3, #0]
 80017a4:	2b00      	cmp	r3, #0
 80017a6:	d102      	bne.n	80017ae <_sbrk+0x22>
  {
    __sbrk_heap_end = &_end;
 80017a8:	4b11      	ldr	r3, [pc, #68]	@ (80017f0 <_sbrk+0x64>)
 80017aa:	4a12      	ldr	r2, [pc, #72]	@ (80017f4 <_sbrk+0x68>)
 80017ac:	601a      	str	r2, [r3, #0]
  }

  /* Protect heap from growing into the reserved MSP stack */
  if (__sbrk_heap_end + incr > max_heap)
 80017ae:	4b10      	ldr	r3, [pc, #64]	@ (80017f0 <_sbrk+0x64>)
 80017b0:	681a      	ldr	r2, [r3, #0]
 80017b2:	687b      	ldr	r3, [r7, #4]
 80017b4:	18d3      	adds	r3, r2, r3
 80017b6:	693a      	ldr	r2, [r7, #16]
 80017b8:	429a      	cmp	r2, r3
 80017ba:	d207      	bcs.n	80017cc <_sbrk+0x40>
  {
    errno = ENOMEM;
 80017bc:	f000 f882 	bl	80018c4 <__errno>
 80017c0:	0003      	movs	r3, r0
 80017c2:	220c      	movs	r2, #12
 80017c4:	601a      	str	r2, [r3, #0]
    return (void *)-1;
 80017c6:	2301      	movs	r3, #1
 80017c8:	425b      	negs	r3, r3
 80017ca:	e009      	b.n	80017e0 <_sbrk+0x54>
  }

  prev_heap_end = __sbrk_heap_end;
 80017cc:	4b08      	ldr	r3, [pc, #32]	@ (80017f0 <_sbrk+0x64>)
 80017ce:	681b      	ldr	r3, [r3, #0]
 80017d0:	60fb      	str	r3, [r7, #12]
  __sbrk_heap_end += incr;
 80017d2:	4b07      	ldr	r3, [pc, #28]	@ (80017f0 <_sbrk+0x64>)
 80017d4:	681a      	ldr	r2, [r3, #0]
 80017d6:	687b      	ldr	r3, [r7, #4]
 80017d8:	18d2      	adds	r2, r2, r3
 80017da:	4b05      	ldr	r3, [pc, #20]	@ (80017f0 <_sbrk+0x64>)
 80017dc:	601a      	str	r2, [r3, #0]

  return (void *)prev_heap_end;
 80017de:	68fb      	ldr	r3, [r7, #12]
}
 80017e0:	0018      	movs	r0, r3
 80017e2:	46bd      	mov	sp, r7
 80017e4:	b006      	add	sp, #24
 80017e6:	bd80      	pop	{r7, pc}
 80017e8:	20002000 	.word	0x20002000
 80017ec:	00000400 	.word	0x00000400
 80017f0:	200000d4 	.word	0x200000d4
 80017f4:	20000220 	.word	0x20000220

080017f8 <SystemInit>:
  * @brief  Setup the microcontroller system.
  * @param  None
  * @retval None
  */
void SystemInit (void)
{
 80017f8:	b580      	push	{r7, lr}
 80017fa:	af00      	add	r7, sp, #0
  /* Configure the Vector Table location add offset address ------------------*/
#if defined (USER_VECT_TAB_ADDRESS)
  SCB->VTOR = VECT_TAB_BASE_ADDRESS | VECT_TAB_OFFSET; /* Vector Table Relocation in Internal SRAM */
#endif /* USER_VECT_TAB_ADDRESS */
}
 80017fc:	46c0      	nop			@ (mov r8, r8)
 80017fe:	46bd      	mov	sp, r7
 8001800:	bd80      	pop	{r7, pc}
	...

08001804 <Reset_Handler>:

    .section  .text.Reset_Handler
  .weak  Reset_Handler
  .type  Reset_Handler, %function
Reset_Handler:
  ldr   r0, =_estack
 8001804:	480d      	ldr	r0, [pc, #52]	@ (800183c <LoopForever+0x2>)
  mov   sp, r0          /* set stack pointer */
 8001806:	4685      	mov	sp, r0

/* Call the clock system initialization function.*/
  bl  SystemInit
 8001808:	f7ff fff6 	bl	80017f8 <SystemInit>

/* Copy the data segment initializers from flash to SRAM */
  ldr r0, =_sdata
 800180c:	480c      	ldr	r0, [pc, #48]	@ (8001840 <LoopForever+0x6>)
  ldr r1, =_edata
 800180e:	490d      	ldr	r1, [pc, #52]	@ (8001844 <LoopForever+0xa>)
  ldr r2, =_sidata
 8001810:	4a0d      	ldr	r2, [pc, #52]	@ (8001848 <LoopForever+0xe>)
  movs r3, #0
 8001812:	2300      	movs	r3, #0
  b LoopCopyDataInit
 8001814:	e002      	b.n	800181c <LoopCopyDataInit>

08001816 <CopyDataInit>:

CopyDataInit:
  ldr r4, [r2, r3]
 8001816:	58d4      	ldr	r4, [r2, r3]
  str r4, [r0, r3]
 8001818:	50c4      	str	r4, [r0, r3]
  adds r3, r3, #4
 800181a:	3304      	adds	r3, #4

0800181c <LoopCopyDataInit>:

LoopCopyDataInit:
  adds r4, r0, r3
 800181c:	18c4      	adds	r4, r0, r3
  cmp r4, r1
 800181e:	428c      	cmp	r4, r1
  bcc CopyDataInit
 8001820:	d3f9      	bcc.n	8001816 <CopyDataInit>

/* Zero fill the bss segment. */
  ldr r2, =_sbss
 8001822:	4a0a      	ldr	r2, [pc, #40]	@ (800184c <LoopForever+0x12>)
  ldr r4, =_ebss
 8001824:	4c0a      	ldr	r4, [pc, #40]	@ (8001850 <LoopForever+0x16>)
  movs r3, #0
 8001826:	2300      	movs	r3, #0
  b LoopFillZerobss
 8001828:	e001      	b.n	800182e <LoopFillZerobss>

0800182a <FillZerobss>:

FillZerobss:
  str  r3, [r2]
 800182a:	6013      	str	r3, [r2, #0]
  adds r2, r2, #4
 800182c:	3204      	adds	r2, #4

0800182e <LoopFillZerobss>:

LoopFillZerobss:
  cmp r2, r4
 800182e:	42a2      	cmp	r2, r4
  bcc FillZerobss
 8001830:	d3fb      	bcc.n	800182a <FillZerobss>

/* Call static constructors */
    bl __libc_init_array
 8001832:	f000 f84d 	bl	80018d0 <__libc_init_array>
/* Call the application's entry point.*/
  bl  main
 8001836:	f7fe fdef 	bl	8000418 <main>

0800183a <LoopForever>:

LoopForever:
    b LoopForever
 800183a:	e7fe      	b.n	800183a <LoopForever>
  ldr   r0, =_estack
 800183c:	20002000 	.word	0x20002000
  ldr r0, =_sdata
 8001840:	20000000 	.word	0x20000000
  ldr r1, =_edata
 8001844:	20000074 	.word	0x20000074
  ldr r2, =_sidata
 8001848:	08002320 	.word	0x08002320
  ldr r2, =_sbss
 800184c:	20000074 	.word	0x20000074
  ldr r4, =_ebss
 8001850:	20000220 	.word	0x20000220

08001854 <ADC1_COMP_IRQHandler>:
 * @retval : None
*/
    .section  .text.Default_Handler,"ax",%progbits
Default_Handler:
Infinite_Loop:
  b  Infinite_Loop
 8001854:	e7fe      	b.n	8001854 <ADC1_COMP_IRQHandler>
	...

08001858 <sniprintf>:
 8001858:	b40c      	push	{r2, r3}
 800185a:	b530      	push	{r4, r5, lr}
 800185c:	4b18      	ldr	r3, [pc, #96]	@ (80018c0 <sniprintf+0x68>)
 800185e:	000c      	movs	r4, r1
 8001860:	681d      	ldr	r5, [r3, #0]
 8001862:	b09d      	sub	sp, #116	@ 0x74
 8001864:	2900      	cmp	r1, #0
 8001866:	da08      	bge.n	800187a <sniprintf+0x22>
 8001868:	238b      	movs	r3, #139	@ 0x8b
 800186a:	2001      	movs	r0, #1
 800186c:	602b      	str	r3, [r5, #0]
 800186e:	4240      	negs	r0, r0
 8001870:	b01d      	add	sp, #116	@ 0x74
 8001872:	bc30      	pop	{r4, r5}
 8001874:	bc08      	pop	{r3}
 8001876:	b002      	add	sp, #8
 8001878:	4718      	bx	r3
 800187a:	2382      	movs	r3, #130	@ 0x82
 800187c:	466a      	mov	r2, sp
 800187e:	009b      	lsls	r3, r3, #2
 8001880:	8293      	strh	r3, [r2, #20]
 8001882:	2300      	movs	r3, #0
 8001884:	9002      	str	r0, [sp, #8]
 8001886:	931b      	str	r3, [sp, #108]	@ 0x6c
 8001888:	9006      	str	r0, [sp, #24]
 800188a:	4299      	cmp	r1, r3
 800188c:	d000      	beq.n	8001890 <sniprintf+0x38>
 800188e:	1e4b      	subs	r3, r1, #1
 8001890:	9304      	str	r3, [sp, #16]
 8001892:	9307      	str	r3, [sp, #28]
 8001894:	2301      	movs	r3, #1
 8001896:	466a      	mov	r2, sp
 8001898:	425b      	negs	r3, r3
 800189a:	82d3      	strh	r3, [r2, #22]
 800189c:	0028      	movs	r0, r5
 800189e:	ab21      	add	r3, sp, #132	@ 0x84
 80018a0:	9a20      	ldr	r2, [sp, #128]	@ 0x80
 80018a2:	a902      	add	r1, sp, #8
 80018a4:	9301      	str	r3, [sp, #4]
 80018a6:	f000 f995 	bl	8001bd4 <_svfiprintf_r>
 80018aa:	1c43      	adds	r3, r0, #1
 80018ac:	da01      	bge.n	80018b2 <sniprintf+0x5a>
 80018ae:	238b      	movs	r3, #139	@ 0x8b
 80018b0:	602b      	str	r3, [r5, #0]
 80018b2:	2c00      	cmp	r4, #0
 80018b4:	d0dc      	beq.n	8001870 <sniprintf+0x18>
 80018b6:	2200      	movs	r2, #0
 80018b8:	9b02      	ldr	r3, [sp, #8]
 80018ba:	701a      	strb	r2, [r3, #0]
 80018bc:	e7d8      	b.n	8001870 <sniprintf+0x18>
 80018be:	46c0      	nop			@ (mov r8, r8)
 80018c0:	20000024 	.word	0x20000024

080018c4 <__errno>:
 80018c4:	4b01      	ldr	r3, [pc, #4]	@ (80018cc <__errno+0x8>)
 80018c6:	6818      	ldr	r0, [r3, #0]
 80018c8:	4770      	bx	lr
 80018ca:	46c0      	nop			@ (mov r8, r8)
 80018cc:	20000024 	.word	0x20000024

080018d0 <__libc_init_array>:
 80018d0:	b570      	push	{r4, r5, r6, lr}
 80018d2:	2600      	movs	r6, #0
 80018d4:	4c0c      	ldr	r4, [pc, #48]	@ (8001908 <__libc_init_array+0x38>)
 80018d6:	4d0d      	ldr	r5, [pc, #52]	@ (800190c <__libc_init_array+0x3c>)
 80018d8:	1b64      	subs	r4, r4, r5
 80018da:	10a4      	asrs	r4, r4, #2
 80018dc:	42a6      	cmp	r6, r4
 80018de:	d109      	bne.n	80018f4 <__libc_init_array+0x24>
 80018e0:	2600      	movs	r6, #0
 80018e2:	f000 fc61 	bl	80021a8 <_init>
 80018e6:	4c0a      	ldr	r4, [pc, #40]	@ (8001910 <__libc_init_array+0x40>)
 80018e8:	4d0a      	ldr	r5, [pc, #40]	@ (8001914 <__libc_init_array+0x44>)
 80018ea:	1b64      	subs	r4, r4, r5
 80018ec:	10a4      	asrs	r4, r4, #2
 80018ee:	42a6      	cmp	r6, r4
 80018f0:	d105      	bne.n	80018fe <__libc_init_array+0x2e>
 80018f2:	bd70      	pop	{r4, r5, r6, pc}
 80018f4:	00b3      	lsls	r3, r6, #2
 80018f6:	58eb      	ldr	r3, [r5, r3]
 80018f8:	4798      	blx	r3
 80018fa:	3601      	adds	r6, #1
 80018fc:	e7ee      	b.n	80018dc <__libc_init_array+0xc>
 80018fe:	00b3      	lsls	r3, r6, #2
 8001900:	58eb      	ldr	r3, [r5, r3]
 8001902:	4798      	blx	r3
 8001904:	3601      	adds	r6, #1
 8001906:	e7f2      	b.n	80018ee <__libc_init_array+0x1e>
 8001908:	08002318 	.word	0x08002318
 800190c:	08002318 	.word	0x08002318
 8001910:	0800231c 	.word	0x0800231c
 8001914:	08002318 	.word	0x08002318

08001918 <__retarget_lock_acquire_recursive>:
 8001918:	4770      	bx	lr

0800191a <__retarget_lock_release_recursive>:
 800191a:	4770      	bx	lr

0800191c <_free_r>:
 800191c:	b570      	push	{r4, r5, r6, lr}
 800191e:	0005      	movs	r5, r0
 8001920:	1e0c      	subs	r4, r1, #0
 8001922:	d010      	beq.n	8001946 <_free_r+0x2a>
 8001924:	3c04      	subs	r4, #4
 8001926:	6823      	ldr	r3, [r4, #0]
 8001928:	2b00      	cmp	r3, #0
 800192a:	da00      	bge.n	800192e <_free_r+0x12>
 800192c:	18e4      	adds	r4, r4, r3
 800192e:	0028      	movs	r0, r5
 8001930:	f000 f8e0 	bl	8001af4 <__malloc_lock>
 8001934:	4a1d      	ldr	r2, [pc, #116]	@ (80019ac <_free_r+0x90>)
 8001936:	6813      	ldr	r3, [r2, #0]
 8001938:	2b00      	cmp	r3, #0
 800193a:	d105      	bne.n	8001948 <_free_r+0x2c>
 800193c:	6063      	str	r3, [r4, #4]
 800193e:	6014      	str	r4, [r2, #0]
 8001940:	0028      	movs	r0, r5
 8001942:	f000 f8df 	bl	8001b04 <__malloc_unlock>
 8001946:	bd70      	pop	{r4, r5, r6, pc}
 8001948:	42a3      	cmp	r3, r4
 800194a:	d908      	bls.n	800195e <_free_r+0x42>
 800194c:	6820      	ldr	r0, [r4, #0]
 800194e:	1821      	adds	r1, r4, r0
 8001950:	428b      	cmp	r3, r1
 8001952:	d1f3      	bne.n	800193c <_free_r+0x20>
 8001954:	6819      	ldr	r1, [r3, #0]
 8001956:	685b      	ldr	r3, [r3, #4]
 8001958:	1809      	adds	r1, r1, r0
 800195a:	6021      	str	r1, [r4, #0]
 800195c:	e7ee      	b.n	800193c <_free_r+0x20>
 800195e:	001a      	movs	r2, r3
 8001960:	685b      	ldr	r3, [r3, #4]
 8001962:	2b00      	cmp	r3, #0
 8001964:	d001      	beq.n	800196a <_free_r+0x4e>
 8001966:	42a3      	cmp	r3, r4
 8001968:	d9f9      	bls.n	800195e <_free_r+0x42>
 800196a:	6811      	ldr	r1, [r2, #0]
 800196c:	1850      	adds	r0, r2, r1
 800196e:	42a0      	cmp	r0, r4
 8001970:	d10b      	bne.n	800198a <_free_r+0x6e>
 8001972:	6820      	ldr	r0, [r4, #0]
 8001974:	1809      	adds	r1, r1, r0
 8001976:	1850      	adds	r0, r2, r1
 8001978:	6011      	str	r1, [r2, #0]
 800197a:	4283      	cmp	r3, r0
 800197c:	d1e0      	bne.n	8001940 <_free_r+0x24>
 800197e:	6818      	ldr	r0, [r3, #0]
 8001980:	685b      	ldr	r3, [r3, #4]
 8001982:	1841      	adds	r1, r0, r1
 8001984:	6011      	str	r1, [r2, #0]
 8001986:	6053      	str	r3, [r2, #4]
 8001988:	e7da      	b.n	8001940 <_free_r+0x24>
 800198a:	42a0      	cmp	r0, r4
 800198c:	d902      	bls.n	8001994 <_free_r+0x78>
 800198e:	230c      	movs	r3, #12
 8001990:	602b      	str	r3, [r5, #0]
 8001992:	e7d5      	b.n	8001940 <_free_r+0x24>
 8001994:	6820      	ldr	r0, [r4, #0]
 8001996:	1821      	adds	r1, r4, r0
 8001998:	428b      	cmp	r3, r1
 800199a:	d103      	bne.n	80019a4 <_free_r+0x88>
 800199c:	6819      	ldr	r1, [r3, #0]
 800199e:	685b      	ldr	r3, [r3, #4]
 80019a0:	1809      	adds	r1, r1, r0
 80019a2:	6021      	str	r1, [r4, #0]
 80019a4:	6063      	str	r3, [r4, #4]
 80019a6:	6054      	str	r4, [r2, #4]
 80019a8:	e7ca      	b.n	8001940 <_free_r+0x24>
 80019aa:	46c0      	nop			@ (mov r8, r8)
 80019ac:	2000021c 	.word	0x2000021c

080019b0 <sbrk_aligned>:
 80019b0:	b570      	push	{r4, r5, r6, lr}
 80019b2:	4e0f      	ldr	r6, [pc, #60]	@ (80019f0 <sbrk_aligned+0x40>)
 80019b4:	000d      	movs	r5, r1
 80019b6:	6831      	ldr	r1, [r6, #0]
 80019b8:	0004      	movs	r4, r0
 80019ba:	2900      	cmp	r1, #0
 80019bc:	d102      	bne.n	80019c4 <sbrk_aligned+0x14>
 80019be:	f000 fb95 	bl	80020ec <_sbrk_r>
 80019c2:	6030      	str	r0, [r6, #0]
 80019c4:	0029      	movs	r1, r5
 80019c6:	0020      	movs	r0, r4
 80019c8:	f000 fb90 	bl	80020ec <_sbrk_r>
 80019cc:	1c43      	adds	r3, r0, #1
 80019ce:	d103      	bne.n	80019d8 <sbrk_aligned+0x28>
 80019d0:	2501      	movs	r5, #1
 80019d2:	426d      	negs	r5, r5
 80019d4:	0028      	movs	r0, r5
 80019d6:	bd70      	pop	{r4, r5, r6, pc}
 80019d8:	2303      	movs	r3, #3
 80019da:	1cc5      	adds	r5, r0, #3
 80019dc:	439d      	bics	r5, r3
 80019de:	42a8      	cmp	r0, r5
 80019e0:	d0f8      	beq.n	80019d4 <sbrk_aligned+0x24>
 80019e2:	1a29      	subs	r1, r5, r0
 80019e4:	0020      	movs	r0, r4
 80019e6:	f000 fb81 	bl	80020ec <_sbrk_r>
 80019ea:	3001      	adds	r0, #1
 80019ec:	d1f2      	bne.n	80019d4 <sbrk_aligned+0x24>
 80019ee:	e7ef      	b.n	80019d0 <sbrk_aligned+0x20>
 80019f0:	20000218 	.word	0x20000218

080019f4 <_malloc_r>:
 80019f4:	b5f7      	push	{r0, r1, r2, r4, r5, r6, r7, lr}
 80019f6:	2203      	movs	r2, #3
 80019f8:	1ccb      	adds	r3, r1, #3
 80019fa:	4393      	bics	r3, r2
 80019fc:	3308      	adds	r3, #8
 80019fe:	0005      	movs	r5, r0
 8001a00:	001f      	movs	r7, r3
 8001a02:	2b0c      	cmp	r3, #12
 8001a04:	d234      	bcs.n	8001a70 <_malloc_r+0x7c>
 8001a06:	270c      	movs	r7, #12
 8001a08:	42b9      	cmp	r1, r7
 8001a0a:	d833      	bhi.n	8001a74 <_malloc_r+0x80>
 8001a0c:	0028      	movs	r0, r5
 8001a0e:	f000 f871 	bl	8001af4 <__malloc_lock>
 8001a12:	4e37      	ldr	r6, [pc, #220]	@ (8001af0 <_malloc_r+0xfc>)
 8001a14:	6833      	ldr	r3, [r6, #0]
 8001a16:	001c      	movs	r4, r3
 8001a18:	2c00      	cmp	r4, #0
 8001a1a:	d12f      	bne.n	8001a7c <_malloc_r+0x88>
 8001a1c:	0039      	movs	r1, r7
 8001a1e:	0028      	movs	r0, r5
 8001a20:	f7ff ffc6 	bl	80019b0 <sbrk_aligned>
 8001a24:	0004      	movs	r4, r0
 8001a26:	1c43      	adds	r3, r0, #1
 8001a28:	d15f      	bne.n	8001aea <_malloc_r+0xf6>
 8001a2a:	6834      	ldr	r4, [r6, #0]
 8001a2c:	9400      	str	r4, [sp, #0]
 8001a2e:	9b00      	ldr	r3, [sp, #0]
 8001a30:	2b00      	cmp	r3, #0
 8001a32:	d14a      	bne.n	8001aca <_malloc_r+0xd6>
 8001a34:	2c00      	cmp	r4, #0
 8001a36:	d052      	beq.n	8001ade <_malloc_r+0xea>
 8001a38:	6823      	ldr	r3, [r4, #0]
 8001a3a:	0028      	movs	r0, r5
 8001a3c:	18e3      	adds	r3, r4, r3
 8001a3e:	9900      	ldr	r1, [sp, #0]
 8001a40:	9301      	str	r3, [sp, #4]
 8001a42:	f000 fb53 	bl	80020ec <_sbrk_r>
 8001a46:	9b01      	ldr	r3, [sp, #4]
 8001a48:	4283      	cmp	r3, r0
 8001a4a:	d148      	bne.n	8001ade <_malloc_r+0xea>
 8001a4c:	6823      	ldr	r3, [r4, #0]
 8001a4e:	0028      	movs	r0, r5
 8001a50:	1aff      	subs	r7, r7, r3
 8001a52:	0039      	movs	r1, r7
 8001a54:	f7ff ffac 	bl	80019b0 <sbrk_aligned>
 8001a58:	3001      	adds	r0, #1
 8001a5a:	d040      	beq.n	8001ade <_malloc_r+0xea>
 8001a5c:	6823      	ldr	r3, [r4, #0]
 8001a5e:	19db      	adds	r3, r3, r7
 8001a60:	6023      	str	r3, [r4, #0]
 8001a62:	6833      	ldr	r3, [r6, #0]
 8001a64:	685a      	ldr	r2, [r3, #4]
 8001a66:	2a00      	cmp	r2, #0
 8001a68:	d133      	bne.n	8001ad2 <_malloc_r+0xde>
 8001a6a:	9b00      	ldr	r3, [sp, #0]
 8001a6c:	6033      	str	r3, [r6, #0]
 8001a6e:	e019      	b.n	8001aa4 <_malloc_r+0xb0>
 8001a70:	2b00      	cmp	r3, #0
 8001a72:	dac9      	bge.n	8001a08 <_malloc_r+0x14>
 8001a74:	230c      	movs	r3, #12
 8001a76:	602b      	str	r3, [r5, #0]
 8001a78:	2000      	movs	r0, #0
 8001a7a:	bdfe      	pop	{r1, r2, r3, r4, r5, r6, r7, pc}
 8001a7c:	6821      	ldr	r1, [r4, #0]
 8001a7e:	1bc9      	subs	r1, r1, r7
 8001a80:	d420      	bmi.n	8001ac4 <_malloc_r+0xd0>
 8001a82:	290b      	cmp	r1, #11
 8001a84:	d90a      	bls.n	8001a9c <_malloc_r+0xa8>
 8001a86:	19e2      	adds	r2, r4, r7
 8001a88:	6027      	str	r7, [r4, #0]
 8001a8a:	42a3      	cmp	r3, r4
 8001a8c:	d104      	bne.n	8001a98 <_malloc_r+0xa4>
 8001a8e:	6032      	str	r2, [r6, #0]
 8001a90:	6863      	ldr	r3, [r4, #4]
 8001a92:	6011      	str	r1, [r2, #0]
 8001a94:	6053      	str	r3, [r2, #4]
 8001a96:	e005      	b.n	8001aa4 <_malloc_r+0xb0>
 8001a98:	605a      	str	r2, [r3, #4]
 8001a9a:	e7f9      	b.n	8001a90 <_malloc_r+0x9c>
 8001a9c:	6862      	ldr	r2, [r4, #4]
 8001a9e:	42a3      	cmp	r3, r4
 8001aa0:	d10e      	bne.n	8001ac0 <_malloc_r+0xcc>
 8001aa2:	6032      	str	r2, [r6, #0]
 8001aa4:	0028      	movs	r0, r5
 8001aa6:	f000 f82d 	bl	8001b04 <__malloc_unlock>
 8001aaa:	0020      	movs	r0, r4
 8001aac:	2207      	movs	r2, #7
 8001aae:	300b      	adds	r0, #11
 8001ab0:	1d23      	adds	r3, r4, #4
 8001ab2:	4390      	bics	r0, r2
 8001ab4:	1ac2      	subs	r2, r0, r3
 8001ab6:	4298      	cmp	r0, r3
 8001ab8:	d0df      	beq.n	8001a7a <_malloc_r+0x86>
 8001aba:	1a1b      	subs	r3, r3, r0
 8001abc:	50a3      	str	r3, [r4, r2]
 8001abe:	e7dc      	b.n	8001a7a <_malloc_r+0x86>
 8001ac0:	605a      	str	r2, [r3, #4]
 8001ac2:	e7ef      	b.n	8001aa4 <_malloc_r+0xb0>
 8001ac4:	0023      	movs	r3, r4
 8001ac6:	6864      	ldr	r4, [r4, #4]
 8001ac8:	e7a6      	b.n	8001a18 <_malloc_r+0x24>
 8001aca:	9c00      	ldr	r4, [sp, #0]
 8001acc:	6863      	ldr	r3, [r4, #4]
 8001ace:	9300      	str	r3, [sp, #0]
 8001ad0:	e7ad      	b.n	8001a2e <_malloc_r+0x3a>
 8001ad2:	001a      	movs	r2, r3
 8001ad4:	685b      	ldr	r3, [r3, #4]
 8001ad6:	42a3      	cmp	r3, r4
 8001ad8:	d1fb      	bne.n	8001ad2 <_malloc_r+0xde>
 8001ada:	2300      	movs	r3, #0
 8001adc:	e7da      	b.n	8001a94 <_malloc_r+0xa0>
 8001ade:	230c      	movs	r3, #12
 8001ae0:	0028      	movs	r0, r5
 8001ae2:	602b      	str	r3, [r5, #0]
 8001ae4:	f000 f80e 	bl	8001b04 <__malloc_unlock>
 8001ae8:	e7c6      	b.n	8001a78 <_malloc_r+0x84>
 8001aea:	6007      	str	r7, [r0, #0]
 8001aec:	e7da      	b.n	8001aa4 <_malloc_r+0xb0>
 8001aee:	46c0      	nop			@ (mov r8, r8)
 8001af0:	2000021c 	.word	0x2000021c

08001af4 <__malloc_lock>:
 8001af4:	b510      	push	{r4, lr}
 8001af6:	4802      	ldr	r0, [pc, #8]	@ (8001b00 <__malloc_lock+0xc>)
 8001af8:	f7ff ff0e 	bl	8001918 <__retarget_lock_acquire_recursive>
 8001afc:	bd10      	pop	{r4, pc}
 8001afe:	46c0      	nop			@ (mov r8, r8)
 8001b00:	20000214 	.word	0x20000214

08001b04 <__malloc_unlock>:
 8001b04:	b510      	push	{r4, lr}
 8001b06:	4802      	ldr	r0, [pc, #8]	@ (8001b10 <__malloc_unlock+0xc>)
 8001b08:	f7ff ff07 	bl	800191a <__retarget_lock_release_recursive>
 8001b0c:	bd10      	pop	{r4, pc}
 8001b0e:	46c0      	nop			@ (mov r8, r8)
 8001b10:	20000214 	.word	0x20000214

08001b14 <__ssputs_r>:
 8001b14:	b5f0      	push	{r4, r5, r6, r7, lr}
 8001b16:	688e      	ldr	r6, [r1, #8]
 8001b18:	b085      	sub	sp, #20
 8001b1a:	001f      	movs	r7, r3
 8001b1c:	000c      	movs	r4, r1
 8001b1e:	680b      	ldr	r3, [r1, #0]
 8001b20:	9002      	str	r0, [sp, #8]
 8001b22:	9203      	str	r2, [sp, #12]
 8001b24:	42be      	cmp	r6, r7
 8001b26:	d830      	bhi.n	8001b8a <__ssputs_r+0x76>
 8001b28:	210c      	movs	r1, #12
 8001b2a:	5e62      	ldrsh	r2, [r4, r1]
 8001b2c:	2190      	movs	r1, #144	@ 0x90
 8001b2e:	00c9      	lsls	r1, r1, #3
 8001b30:	420a      	tst	r2, r1
 8001b32:	d028      	beq.n	8001b86 <__ssputs_r+0x72>
 8001b34:	2003      	movs	r0, #3
 8001b36:	6921      	ldr	r1, [r4, #16]
 8001b38:	1a5b      	subs	r3, r3, r1
 8001b3a:	9301      	str	r3, [sp, #4]
 8001b3c:	6963      	ldr	r3, [r4, #20]
 8001b3e:	4343      	muls	r3, r0
 8001b40:	9801      	ldr	r0, [sp, #4]
 8001b42:	0fdd      	lsrs	r5, r3, #31
 8001b44:	18ed      	adds	r5, r5, r3
 8001b46:	1c7b      	adds	r3, r7, #1
 8001b48:	181b      	adds	r3, r3, r0
 8001b4a:	106d      	asrs	r5, r5, #1
 8001b4c:	42ab      	cmp	r3, r5
 8001b4e:	d900      	bls.n	8001b52 <__ssputs_r+0x3e>
 8001b50:	001d      	movs	r5, r3
 8001b52:	0552      	lsls	r2, r2, #21
 8001b54:	d528      	bpl.n	8001ba8 <__ssputs_r+0x94>
 8001b56:	0029      	movs	r1, r5
 8001b58:	9802      	ldr	r0, [sp, #8]
 8001b5a:	f7ff ff4b 	bl	80019f4 <_malloc_r>
 8001b5e:	1e06      	subs	r6, r0, #0
 8001b60:	d02c      	beq.n	8001bbc <__ssputs_r+0xa8>
 8001b62:	9a01      	ldr	r2, [sp, #4]
 8001b64:	6921      	ldr	r1, [r4, #16]
 8001b66:	f000 fade 	bl	8002126 <memcpy>
 8001b6a:	89a2      	ldrh	r2, [r4, #12]
 8001b6c:	4b18      	ldr	r3, [pc, #96]	@ (8001bd0 <__ssputs_r+0xbc>)
 8001b6e:	401a      	ands	r2, r3
 8001b70:	2380      	movs	r3, #128	@ 0x80
 8001b72:	4313      	orrs	r3, r2
 8001b74:	81a3      	strh	r3, [r4, #12]
 8001b76:	9b01      	ldr	r3, [sp, #4]
 8001b78:	6126      	str	r6, [r4, #16]
 8001b7a:	18f6      	adds	r6, r6, r3
 8001b7c:	6026      	str	r6, [r4, #0]
 8001b7e:	003e      	movs	r6, r7
 8001b80:	6165      	str	r5, [r4, #20]
 8001b82:	1aed      	subs	r5, r5, r3
 8001b84:	60a5      	str	r5, [r4, #8]
 8001b86:	42be      	cmp	r6, r7
 8001b88:	d900      	bls.n	8001b8c <__ssputs_r+0x78>
 8001b8a:	003e      	movs	r6, r7
 8001b8c:	0032      	movs	r2, r6
 8001b8e:	9903      	ldr	r1, [sp, #12]
 8001b90:	6820      	ldr	r0, [r4, #0]
 8001b92:	f000 fa99 	bl	80020c8 <memmove>
 8001b96:	2000      	movs	r0, #0
 8001b98:	68a3      	ldr	r3, [r4, #8]
 8001b9a:	1b9b      	subs	r3, r3, r6
 8001b9c:	60a3      	str	r3, [r4, #8]
 8001b9e:	6823      	ldr	r3, [r4, #0]
 8001ba0:	199b      	adds	r3, r3, r6
 8001ba2:	6023      	str	r3, [r4, #0]
 8001ba4:	b005      	add	sp, #20
 8001ba6:	bdf0      	pop	{r4, r5, r6, r7, pc}
 8001ba8:	002a      	movs	r2, r5
 8001baa:	9802      	ldr	r0, [sp, #8]
 8001bac:	f000 fac4 	bl	8002138 <_realloc_r>
 8001bb0:	1e06      	subs	r6, r0, #0
 8001bb2:	d1e0      	bne.n	8001b76 <__ssputs_r+0x62>
 8001bb4:	6921      	ldr	r1, [r4, #16]
 8001bb6:	9802      	ldr	r0, [sp, #8]
 8001bb8:	f7ff feb0 	bl	800191c <_free_r>
 8001bbc:	230c      	movs	r3, #12
 8001bbe:	2001      	movs	r0, #1
 8001bc0:	9a02      	ldr	r2, [sp, #8]
 8001bc2:	4240      	negs	r0, r0
 8001bc4:	6013      	str	r3, [r2, #0]
 8001bc6:	89a2      	ldrh	r2, [r4, #12]
 8001bc8:	3334      	adds	r3, #52	@ 0x34
 8001bca:	4313      	orrs	r3, r2
 8001bcc:	81a3      	strh	r3, [r4, #12]
 8001bce:	e7e9      	b.n	8001ba4 <__ssputs_r+0x90>
 8001bd0:	fffffb7f 	.word	0xfffffb7f

08001bd4 <_svfiprintf_r>:
 8001bd4:	b5f0      	push	{r4, r5, r6, r7, lr}
 8001bd6:	b0a1      	sub	sp, #132	@ 0x84
 8001bd8:	9003      	str	r0, [sp, #12]
 8001bda:	001d      	movs	r5, r3
 8001bdc:	898b      	ldrh	r3, [r1, #12]
 8001bde:	000f      	movs	r7, r1
 8001be0:	0016      	movs	r6, r2
 8001be2:	061b      	lsls	r3, r3, #24
 8001be4:	d511      	bpl.n	8001c0a <_svfiprintf_r+0x36>
 8001be6:	690b      	ldr	r3, [r1, #16]
 8001be8:	2b00      	cmp	r3, #0
 8001bea:	d10e      	bne.n	8001c0a <_svfiprintf_r+0x36>
 8001bec:	2140      	movs	r1, #64	@ 0x40
 8001bee:	f7ff ff01 	bl	80019f4 <_malloc_r>
 8001bf2:	6038      	str	r0, [r7, #0]
 8001bf4:	6138      	str	r0, [r7, #16]
 8001bf6:	2800      	cmp	r0, #0
 8001bf8:	d105      	bne.n	8001c06 <_svfiprintf_r+0x32>
 8001bfa:	230c      	movs	r3, #12
 8001bfc:	9a03      	ldr	r2, [sp, #12]
 8001bfe:	6013      	str	r3, [r2, #0]
 8001c00:	2001      	movs	r0, #1
 8001c02:	4240      	negs	r0, r0
 8001c04:	e0cf      	b.n	8001da6 <_svfiprintf_r+0x1d2>
 8001c06:	2340      	movs	r3, #64	@ 0x40
 8001c08:	617b      	str	r3, [r7, #20]
 8001c0a:	2300      	movs	r3, #0
 8001c0c:	ac08      	add	r4, sp, #32
 8001c0e:	6163      	str	r3, [r4, #20]
 8001c10:	3320      	adds	r3, #32
 8001c12:	7663      	strb	r3, [r4, #25]
 8001c14:	3310      	adds	r3, #16
 8001c16:	76a3      	strb	r3, [r4, #26]
 8001c18:	9507      	str	r5, [sp, #28]
 8001c1a:	0035      	movs	r5, r6
 8001c1c:	782b      	ldrb	r3, [r5, #0]
 8001c1e:	2b00      	cmp	r3, #0
 8001c20:	d001      	beq.n	8001c26 <_svfiprintf_r+0x52>
 8001c22:	2b25      	cmp	r3, #37	@ 0x25
 8001c24:	d148      	bne.n	8001cb8 <_svfiprintf_r+0xe4>
 8001c26:	1bab      	subs	r3, r5, r6
 8001c28:	9305      	str	r3, [sp, #20]
 8001c2a:	42b5      	cmp	r5, r6
 8001c2c:	d00b      	beq.n	8001c46 <_svfiprintf_r+0x72>
 8001c2e:	0032      	movs	r2, r6
 8001c30:	0039      	movs	r1, r7
 8001c32:	9803      	ldr	r0, [sp, #12]
 8001c34:	f7ff ff6e 	bl	8001b14 <__ssputs_r>
 8001c38:	3001      	adds	r0, #1
 8001c3a:	d100      	bne.n	8001c3e <_svfiprintf_r+0x6a>
 8001c3c:	e0ae      	b.n	8001d9c <_svfiprintf_r+0x1c8>
 8001c3e:	6963      	ldr	r3, [r4, #20]
 8001c40:	9a05      	ldr	r2, [sp, #20]
 8001c42:	189b      	adds	r3, r3, r2
 8001c44:	6163      	str	r3, [r4, #20]
 8001c46:	782b      	ldrb	r3, [r5, #0]
 8001c48:	2b00      	cmp	r3, #0
 8001c4a:	d100      	bne.n	8001c4e <_svfiprintf_r+0x7a>
 8001c4c:	e0a6      	b.n	8001d9c <_svfiprintf_r+0x1c8>
 8001c4e:	2201      	movs	r2, #1
 8001c50:	2300      	movs	r3, #0
 8001c52:	4252      	negs	r2, r2
 8001c54:	6062      	str	r2, [r4, #4]
 8001c56:	a904      	add	r1, sp, #16
 8001c58:	3254      	adds	r2, #84	@ 0x54
 8001c5a:	1852      	adds	r2, r2, r1
 8001c5c:	1c6e      	adds	r6, r5, #1
 8001c5e:	6023      	str	r3, [r4, #0]
 8001c60:	60e3      	str	r3, [r4, #12]
 8001c62:	60a3      	str	r3, [r4, #8]
 8001c64:	7013      	strb	r3, [r2, #0]
 8001c66:	65a3      	str	r3, [r4, #88]	@ 0x58
 8001c68:	4b54      	ldr	r3, [pc, #336]	@ (8001dbc <_svfiprintf_r+0x1e8>)
 8001c6a:	2205      	movs	r2, #5
 8001c6c:	0018      	movs	r0, r3
 8001c6e:	7831      	ldrb	r1, [r6, #0]
 8001c70:	9305      	str	r3, [sp, #20]
 8001c72:	f000 fa4d 	bl	8002110 <memchr>
 8001c76:	1c75      	adds	r5, r6, #1
 8001c78:	2800      	cmp	r0, #0
 8001c7a:	d11f      	bne.n	8001cbc <_svfiprintf_r+0xe8>
 8001c7c:	6822      	ldr	r2, [r4, #0]
 8001c7e:	06d3      	lsls	r3, r2, #27
 8001c80:	d504      	bpl.n	8001c8c <_svfiprintf_r+0xb8>
 8001c82:	2353      	movs	r3, #83	@ 0x53
 8001c84:	a904      	add	r1, sp, #16
 8001c86:	185b      	adds	r3, r3, r1
 8001c88:	2120      	movs	r1, #32
 8001c8a:	7019      	strb	r1, [r3, #0]
 8001c8c:	0713      	lsls	r3, r2, #28
 8001c8e:	d504      	bpl.n	8001c9a <_svfiprintf_r+0xc6>
 8001c90:	2353      	movs	r3, #83	@ 0x53
 8001c92:	a904      	add	r1, sp, #16
 8001c94:	185b      	adds	r3, r3, r1
 8001c96:	212b      	movs	r1, #43	@ 0x2b
 8001c98:	7019      	strb	r1, [r3, #0]
 8001c9a:	7833      	ldrb	r3, [r6, #0]
 8001c9c:	2b2a      	cmp	r3, #42	@ 0x2a
 8001c9e:	d016      	beq.n	8001cce <_svfiprintf_r+0xfa>
 8001ca0:	0035      	movs	r5, r6
 8001ca2:	2100      	movs	r1, #0
 8001ca4:	200a      	movs	r0, #10
 8001ca6:	68e3      	ldr	r3, [r4, #12]
 8001ca8:	782a      	ldrb	r2, [r5, #0]
 8001caa:	1c6e      	adds	r6, r5, #1
 8001cac:	3a30      	subs	r2, #48	@ 0x30
 8001cae:	2a09      	cmp	r2, #9
 8001cb0:	d950      	bls.n	8001d54 <_svfiprintf_r+0x180>
 8001cb2:	2900      	cmp	r1, #0
 8001cb4:	d111      	bne.n	8001cda <_svfiprintf_r+0x106>
 8001cb6:	e017      	b.n	8001ce8 <_svfiprintf_r+0x114>
 8001cb8:	3501      	adds	r5, #1
 8001cba:	e7af      	b.n	8001c1c <_svfiprintf_r+0x48>
 8001cbc:	9b05      	ldr	r3, [sp, #20]
 8001cbe:	6822      	ldr	r2, [r4, #0]
 8001cc0:	1ac0      	subs	r0, r0, r3
 8001cc2:	2301      	movs	r3, #1
 8001cc4:	4083      	lsls	r3, r0
 8001cc6:	4313      	orrs	r3, r2
 8001cc8:	002e      	movs	r6, r5
 8001cca:	6023      	str	r3, [r4, #0]
 8001ccc:	e7cc      	b.n	8001c68 <_svfiprintf_r+0x94>
 8001cce:	9b07      	ldr	r3, [sp, #28]
 8001cd0:	1d19      	adds	r1, r3, #4
 8001cd2:	681b      	ldr	r3, [r3, #0]
 8001cd4:	9107      	str	r1, [sp, #28]
 8001cd6:	2b00      	cmp	r3, #0
 8001cd8:	db01      	blt.n	8001cde <_svfiprintf_r+0x10a>
 8001cda:	930b      	str	r3, [sp, #44]	@ 0x2c
 8001cdc:	e004      	b.n	8001ce8 <_svfiprintf_r+0x114>
 8001cde:	425b      	negs	r3, r3
 8001ce0:	60e3      	str	r3, [r4, #12]
 8001ce2:	2302      	movs	r3, #2
 8001ce4:	4313      	orrs	r3, r2
 8001ce6:	6023      	str	r3, [r4, #0]
 8001ce8:	782b      	ldrb	r3, [r5, #0]
 8001cea:	2b2e      	cmp	r3, #46	@ 0x2e
 8001cec:	d10c      	bne.n	8001d08 <_svfiprintf_r+0x134>
 8001cee:	786b      	ldrb	r3, [r5, #1]
 8001cf0:	2b2a      	cmp	r3, #42	@ 0x2a
 8001cf2:	d134      	bne.n	8001d5e <_svfiprintf_r+0x18a>
 8001cf4:	9b07      	ldr	r3, [sp, #28]
 8001cf6:	3502      	adds	r5, #2
 8001cf8:	1d1a      	adds	r2, r3, #4
 8001cfa:	681b      	ldr	r3, [r3, #0]
 8001cfc:	9207      	str	r2, [sp, #28]
 8001cfe:	2b00      	cmp	r3, #0
 8001d00:	da01      	bge.n	8001d06 <_svfiprintf_r+0x132>
 8001d02:	2301      	movs	r3, #1
 8001d04:	425b      	negs	r3, r3
 8001d06:	9309      	str	r3, [sp, #36]	@ 0x24
 8001d08:	4e2d      	ldr	r6, [pc, #180]	@ (8001dc0 <_svfiprintf_r+0x1ec>)
 8001d0a:	2203      	movs	r2, #3
 8001d0c:	0030      	movs	r0, r6
 8001d0e:	7829      	ldrb	r1, [r5, #0]
 8001d10:	f000 f9fe 	bl	8002110 <memchr>
 8001d14:	2800      	cmp	r0, #0
 8001d16:	d006      	beq.n	8001d26 <_svfiprintf_r+0x152>
 8001d18:	2340      	movs	r3, #64	@ 0x40
 8001d1a:	1b80      	subs	r0, r0, r6
 8001d1c:	4083      	lsls	r3, r0
 8001d1e:	6822      	ldr	r2, [r4, #0]
 8001d20:	3501      	adds	r5, #1
 8001d22:	4313      	orrs	r3, r2
 8001d24:	6023      	str	r3, [r4, #0]
 8001d26:	7829      	ldrb	r1, [r5, #0]
 8001d28:	2206      	movs	r2, #6
 8001d2a:	4826      	ldr	r0, [pc, #152]	@ (8001dc4 <_svfiprintf_r+0x1f0>)
 8001d2c:	1c6e      	adds	r6, r5, #1
 8001d2e:	7621      	strb	r1, [r4, #24]
 8001d30:	f000 f9ee 	bl	8002110 <memchr>
 8001d34:	2800      	cmp	r0, #0
 8001d36:	d038      	beq.n	8001daa <_svfiprintf_r+0x1d6>
 8001d38:	4b23      	ldr	r3, [pc, #140]	@ (8001dc8 <_svfiprintf_r+0x1f4>)
 8001d3a:	2b00      	cmp	r3, #0
 8001d3c:	d122      	bne.n	8001d84 <_svfiprintf_r+0x1b0>
 8001d3e:	2207      	movs	r2, #7
 8001d40:	9b07      	ldr	r3, [sp, #28]
 8001d42:	3307      	adds	r3, #7
 8001d44:	4393      	bics	r3, r2
 8001d46:	3308      	adds	r3, #8
 8001d48:	9307      	str	r3, [sp, #28]
 8001d4a:	6963      	ldr	r3, [r4, #20]
 8001d4c:	9a04      	ldr	r2, [sp, #16]
 8001d4e:	189b      	adds	r3, r3, r2
 8001d50:	6163      	str	r3, [r4, #20]
 8001d52:	e762      	b.n	8001c1a <_svfiprintf_r+0x46>
 8001d54:	4343      	muls	r3, r0
 8001d56:	0035      	movs	r5, r6
 8001d58:	2101      	movs	r1, #1
 8001d5a:	189b      	adds	r3, r3, r2
 8001d5c:	e7a4      	b.n	8001ca8 <_svfiprintf_r+0xd4>
 8001d5e:	2300      	movs	r3, #0
 8001d60:	200a      	movs	r0, #10
 8001d62:	0019      	movs	r1, r3
 8001d64:	3501      	adds	r5, #1
 8001d66:	6063      	str	r3, [r4, #4]
 8001d68:	782a      	ldrb	r2, [r5, #0]
 8001d6a:	1c6e      	adds	r6, r5, #1
 8001d6c:	3a30      	subs	r2, #48	@ 0x30
 8001d6e:	2a09      	cmp	r2, #9
 8001d70:	d903      	bls.n	8001d7a <_svfiprintf_r+0x1a6>
 8001d72:	2b00      	cmp	r3, #0
 8001d74:	d0c8      	beq.n	8001d08 <_svfiprintf_r+0x134>
 8001d76:	9109      	str	r1, [sp, #36]	@ 0x24
 8001d78:	e7c6      	b.n	8001d08 <_svfiprintf_r+0x134>
 8001d7a:	4341      	muls	r1, r0
 8001d7c:	0035      	movs	r5, r6
 8001d7e:	2301      	movs	r3, #1
 8001d80:	1889      	adds	r1, r1, r2
 8001d82:	e7f1      	b.n	8001d68 <_svfiprintf_r+0x194>
 8001d84:	aa07      	add	r2, sp, #28
 8001d86:	9200      	str	r2, [sp, #0]
 8001d88:	0021      	movs	r1, r4
 8001d8a:	003a      	movs	r2, r7
 8001d8c:	4b0f      	ldr	r3, [pc, #60]	@ (8001dcc <_svfiprintf_r+0x1f8>)
 8001d8e:	9803      	ldr	r0, [sp, #12]
 8001d90:	e000      	b.n	8001d94 <_svfiprintf_r+0x1c0>
 8001d92:	bf00      	nop
 8001d94:	9004      	str	r0, [sp, #16]
 8001d96:	9b04      	ldr	r3, [sp, #16]
 8001d98:	3301      	adds	r3, #1
 8001d9a:	d1d6      	bne.n	8001d4a <_svfiprintf_r+0x176>
 8001d9c:	89bb      	ldrh	r3, [r7, #12]
 8001d9e:	980d      	ldr	r0, [sp, #52]	@ 0x34
 8001da0:	065b      	lsls	r3, r3, #25
 8001da2:	d500      	bpl.n	8001da6 <_svfiprintf_r+0x1d2>
 8001da4:	e72c      	b.n	8001c00 <_svfiprintf_r+0x2c>
 8001da6:	b021      	add	sp, #132	@ 0x84
 8001da8:	bdf0      	pop	{r4, r5, r6, r7, pc}
 8001daa:	aa07      	add	r2, sp, #28
 8001dac:	9200      	str	r2, [sp, #0]
 8001dae:	0021      	movs	r1, r4
 8001db0:	003a      	movs	r2, r7
 8001db2:	4b06      	ldr	r3, [pc, #24]	@ (8001dcc <_svfiprintf_r+0x1f8>)
 8001db4:	9803      	ldr	r0, [sp, #12]
 8001db6:	f000 f87b 	bl	8001eb0 <_printf_i>
 8001dba:	e7eb      	b.n	8001d94 <_svfiprintf_r+0x1c0>
 8001dbc:	080022e2 	.word	0x080022e2
 8001dc0:	080022e8 	.word	0x080022e8
 8001dc4:	080022ec 	.word	0x080022ec
 8001dc8:	00000000 	.word	0x00000000
 8001dcc:	08001b15 	.word	0x08001b15

08001dd0 <_printf_common>:
 8001dd0:	b5f7      	push	{r0, r1, r2, r4, r5, r6, r7, lr}
 8001dd2:	0016      	movs	r6, r2
 8001dd4:	9301      	str	r3, [sp, #4]
 8001dd6:	688a      	ldr	r2, [r1, #8]
 8001dd8:	690b      	ldr	r3, [r1, #16]
 8001dda:	000c      	movs	r4, r1
 8001ddc:	9000      	str	r0, [sp, #0]
 8001dde:	4293      	cmp	r3, r2
 8001de0:	da00      	bge.n	8001de4 <_printf_common+0x14>
 8001de2:	0013      	movs	r3, r2
 8001de4:	0022      	movs	r2, r4
 8001de6:	6033      	str	r3, [r6, #0]
 8001de8:	3243      	adds	r2, #67	@ 0x43
 8001dea:	7812      	ldrb	r2, [r2, #0]
 8001dec:	2a00      	cmp	r2, #0
 8001dee:	d001      	beq.n	8001df4 <_printf_common+0x24>
 8001df0:	3301      	adds	r3, #1
 8001df2:	6033      	str	r3, [r6, #0]
 8001df4:	6823      	ldr	r3, [r4, #0]
 8001df6:	069b      	lsls	r3, r3, #26
 8001df8:	d502      	bpl.n	8001e00 <_printf_common+0x30>
 8001dfa:	6833      	ldr	r3, [r6, #0]
 8001dfc:	3302      	adds	r3, #2
 8001dfe:	6033      	str	r3, [r6, #0]
 8001e00:	6822      	ldr	r2, [r4, #0]
 8001e02:	2306      	movs	r3, #6
 8001e04:	0015      	movs	r5, r2
 8001e06:	401d      	ands	r5, r3
 8001e08:	421a      	tst	r2, r3
 8001e0a:	d027      	beq.n	8001e5c <_printf_common+0x8c>
 8001e0c:	0023      	movs	r3, r4
 8001e0e:	3343      	adds	r3, #67	@ 0x43
 8001e10:	781b      	ldrb	r3, [r3, #0]
 8001e12:	1e5a      	subs	r2, r3, #1
 8001e14:	4193      	sbcs	r3, r2
 8001e16:	6822      	ldr	r2, [r4, #0]
 8001e18:	0692      	lsls	r2, r2, #26
 8001e1a:	d430      	bmi.n	8001e7e <_printf_common+0xae>
 8001e1c:	0022      	movs	r2, r4
 8001e1e:	9901      	ldr	r1, [sp, #4]
 8001e20:	9800      	ldr	r0, [sp, #0]
 8001e22:	9d08      	ldr	r5, [sp, #32]
 8001e24:	3243      	adds	r2, #67	@ 0x43
 8001e26:	47a8      	blx	r5
 8001e28:	3001      	adds	r0, #1
 8001e2a:	d025      	beq.n	8001e78 <_printf_common+0xa8>
 8001e2c:	2206      	movs	r2, #6
 8001e2e:	6823      	ldr	r3, [r4, #0]
 8001e30:	2500      	movs	r5, #0
 8001e32:	4013      	ands	r3, r2
 8001e34:	2b04      	cmp	r3, #4
 8001e36:	d105      	bne.n	8001e44 <_printf_common+0x74>
 8001e38:	6833      	ldr	r3, [r6, #0]
 8001e3a:	68e5      	ldr	r5, [r4, #12]
 8001e3c:	1aed      	subs	r5, r5, r3
 8001e3e:	43eb      	mvns	r3, r5
 8001e40:	17db      	asrs	r3, r3, #31
 8001e42:	401d      	ands	r5, r3
 8001e44:	68a3      	ldr	r3, [r4, #8]
 8001e46:	6922      	ldr	r2, [r4, #16]
 8001e48:	4293      	cmp	r3, r2
 8001e4a:	dd01      	ble.n	8001e50 <_printf_common+0x80>
 8001e4c:	1a9b      	subs	r3, r3, r2
 8001e4e:	18ed      	adds	r5, r5, r3
 8001e50:	2600      	movs	r6, #0
 8001e52:	42b5      	cmp	r5, r6
 8001e54:	d120      	bne.n	8001e98 <_printf_common+0xc8>
 8001e56:	2000      	movs	r0, #0
 8001e58:	e010      	b.n	8001e7c <_printf_common+0xac>
 8001e5a:	3501      	adds	r5, #1
 8001e5c:	68e3      	ldr	r3, [r4, #12]
 8001e5e:	6832      	ldr	r2, [r6, #0]
 8001e60:	1a9b      	subs	r3, r3, r2
 8001e62:	42ab      	cmp	r3, r5
 8001e64:	ddd2      	ble.n	8001e0c <_printf_common+0x3c>
 8001e66:	0022      	movs	r2, r4
 8001e68:	2301      	movs	r3, #1
 8001e6a:	9901      	ldr	r1, [sp, #4]
 8001e6c:	9800      	ldr	r0, [sp, #0]
 8001e6e:	9f08      	ldr	r7, [sp, #32]
 8001e70:	3219      	adds	r2, #25
 8001e72:	47b8      	blx	r7
 8001e74:	3001      	adds	r0, #1
 8001e76:	d1f0      	bne.n	8001e5a <_printf_common+0x8a>
 8001e78:	2001      	movs	r0, #1
 8001e7a:	4240      	negs	r0, r0
 8001e7c:	bdfe      	pop	{r1, r2, r3, r4, r5, r6, r7, pc}
 8001e7e:	2030      	movs	r0, #48	@ 0x30
 8001e80:	18e1      	adds	r1, r4, r3
 8001e82:	3143      	adds	r1, #67	@ 0x43
 8001e84:	7008      	strb	r0, [r1, #0]
 8001e86:	0021      	movs	r1, r4
 8001e88:	1c5a      	adds	r2, r3, #1
 8001e8a:	3145      	adds	r1, #69	@ 0x45
 8001e8c:	7809      	ldrb	r1, [r1, #0]
 8001e8e:	18a2      	adds	r2, r4, r2
 8001e90:	3243      	adds	r2, #67	@ 0x43
 8001e92:	3302      	adds	r3, #2
 8001e94:	7011      	strb	r1, [r2, #0]
 8001e96:	e7c1      	b.n	8001e1c <_printf_common+0x4c>
 8001e98:	0022      	movs	r2, r4
 8001e9a:	2301      	movs	r3, #1
 8001e9c:	9901      	ldr	r1, [sp, #4]
 8001e9e:	9800      	ldr	r0, [sp, #0]
 8001ea0:	9f08      	ldr	r7, [sp, #32]
 8001ea2:	321a      	adds	r2, #26
 8001ea4:	47b8      	blx	r7
 8001ea6:	3001      	adds	r0, #1
 8001ea8:	d0e6      	beq.n	8001e78 <_printf_common+0xa8>
 8001eaa:	3601      	adds	r6, #1
 8001eac:	e7d1      	b.n	8001e52 <_printf_common+0x82>
	...

08001eb0 <_printf_i>:
 8001eb0:	b5f0      	push	{r4, r5, r6, r7, lr}
 8001eb2:	b08b      	sub	sp, #44	@ 0x2c
 8001eb4:	9206      	str	r2, [sp, #24]
 8001eb6:	000a      	movs	r2, r1
 8001eb8:	3243      	adds	r2, #67	@ 0x43
 8001eba:	9307      	str	r3, [sp, #28]
 8001ebc:	9005      	str	r0, [sp, #20]
 8001ebe:	9203      	str	r2, [sp, #12]
 8001ec0:	7e0a      	ldrb	r2, [r1, #24]
 8001ec2:	000c      	movs	r4, r1
 8001ec4:	9b10      	ldr	r3, [sp, #64]	@ 0x40
 8001ec6:	2a78      	cmp	r2, #120	@ 0x78
 8001ec8:	d809      	bhi.n	8001ede <_printf_i+0x2e>
 8001eca:	2a62      	cmp	r2, #98	@ 0x62
 8001ecc:	d80b      	bhi.n	8001ee6 <_printf_i+0x36>
 8001ece:	2a00      	cmp	r2, #0
 8001ed0:	d100      	bne.n	8001ed4 <_printf_i+0x24>
 8001ed2:	e0ba      	b.n	800204a <_printf_i+0x19a>
 8001ed4:	497a      	ldr	r1, [pc, #488]	@ (80020c0 <_printf_i+0x210>)
 8001ed6:	9104      	str	r1, [sp, #16]
 8001ed8:	2a58      	cmp	r2, #88	@ 0x58
 8001eda:	d100      	bne.n	8001ede <_printf_i+0x2e>
 8001edc:	e08e      	b.n	8001ffc <_printf_i+0x14c>
 8001ede:	0025      	movs	r5, r4
 8001ee0:	3542      	adds	r5, #66	@ 0x42
 8001ee2:	702a      	strb	r2, [r5, #0]
 8001ee4:	e022      	b.n	8001f2c <_printf_i+0x7c>
 8001ee6:	0010      	movs	r0, r2
 8001ee8:	3863      	subs	r0, #99	@ 0x63
 8001eea:	2815      	cmp	r0, #21
 8001eec:	d8f7      	bhi.n	8001ede <_printf_i+0x2e>
 8001eee:	f7fe f913 	bl	8000118 <__gnu_thumb1_case_shi>
 8001ef2:	0016      	.short	0x0016
 8001ef4:	fff6001f 	.word	0xfff6001f
 8001ef8:	fff6fff6 	.word	0xfff6fff6
 8001efc:	001ffff6 	.word	0x001ffff6
 8001f00:	fff6fff6 	.word	0xfff6fff6
 8001f04:	fff6fff6 	.word	0xfff6fff6
 8001f08:	0036009f 	.word	0x0036009f
 8001f0c:	fff6007e 	.word	0xfff6007e
 8001f10:	00b0fff6 	.word	0x00b0fff6
 8001f14:	0036fff6 	.word	0x0036fff6
 8001f18:	fff6fff6 	.word	0xfff6fff6
 8001f1c:	0082      	.short	0x0082
 8001f1e:	0025      	movs	r5, r4
 8001f20:	681a      	ldr	r2, [r3, #0]
 8001f22:	3542      	adds	r5, #66	@ 0x42
 8001f24:	1d11      	adds	r1, r2, #4
 8001f26:	6019      	str	r1, [r3, #0]
 8001f28:	6813      	ldr	r3, [r2, #0]
 8001f2a:	702b      	strb	r3, [r5, #0]
 8001f2c:	2301      	movs	r3, #1
 8001f2e:	e09e      	b.n	800206e <_printf_i+0x1be>
 8001f30:	6818      	ldr	r0, [r3, #0]
 8001f32:	6809      	ldr	r1, [r1, #0]
 8001f34:	1d02      	adds	r2, r0, #4
 8001f36:	060d      	lsls	r5, r1, #24
 8001f38:	d50b      	bpl.n	8001f52 <_printf_i+0xa2>
 8001f3a:	6806      	ldr	r6, [r0, #0]
 8001f3c:	601a      	str	r2, [r3, #0]
 8001f3e:	2e00      	cmp	r6, #0
 8001f40:	da03      	bge.n	8001f4a <_printf_i+0x9a>
 8001f42:	232d      	movs	r3, #45	@ 0x2d
 8001f44:	9a03      	ldr	r2, [sp, #12]
 8001f46:	4276      	negs	r6, r6
 8001f48:	7013      	strb	r3, [r2, #0]
 8001f4a:	4b5d      	ldr	r3, [pc, #372]	@ (80020c0 <_printf_i+0x210>)
 8001f4c:	270a      	movs	r7, #10
 8001f4e:	9304      	str	r3, [sp, #16]
 8001f50:	e018      	b.n	8001f84 <_printf_i+0xd4>
 8001f52:	6806      	ldr	r6, [r0, #0]
 8001f54:	601a      	str	r2, [r3, #0]
 8001f56:	0649      	lsls	r1, r1, #25
 8001f58:	d5f1      	bpl.n	8001f3e <_printf_i+0x8e>
 8001f5a:	b236      	sxth	r6, r6
 8001f5c:	e7ef      	b.n	8001f3e <_printf_i+0x8e>
 8001f5e:	6808      	ldr	r0, [r1, #0]
 8001f60:	6819      	ldr	r1, [r3, #0]
 8001f62:	c940      	ldmia	r1!, {r6}
 8001f64:	0605      	lsls	r5, r0, #24
 8001f66:	d402      	bmi.n	8001f6e <_printf_i+0xbe>
 8001f68:	0640      	lsls	r0, r0, #25
 8001f6a:	d500      	bpl.n	8001f6e <_printf_i+0xbe>
 8001f6c:	b2b6      	uxth	r6, r6
 8001f6e:	6019      	str	r1, [r3, #0]
 8001f70:	4b53      	ldr	r3, [pc, #332]	@ (80020c0 <_printf_i+0x210>)
 8001f72:	270a      	movs	r7, #10
 8001f74:	9304      	str	r3, [sp, #16]
 8001f76:	2a6f      	cmp	r2, #111	@ 0x6f
 8001f78:	d100      	bne.n	8001f7c <_printf_i+0xcc>
 8001f7a:	3f02      	subs	r7, #2
 8001f7c:	0023      	movs	r3, r4
 8001f7e:	2200      	movs	r2, #0
 8001f80:	3343      	adds	r3, #67	@ 0x43
 8001f82:	701a      	strb	r2, [r3, #0]
 8001f84:	6863      	ldr	r3, [r4, #4]
 8001f86:	60a3      	str	r3, [r4, #8]
 8001f88:	2b00      	cmp	r3, #0
 8001f8a:	db06      	blt.n	8001f9a <_printf_i+0xea>
 8001f8c:	2104      	movs	r1, #4
 8001f8e:	6822      	ldr	r2, [r4, #0]
 8001f90:	9d03      	ldr	r5, [sp, #12]
 8001f92:	438a      	bics	r2, r1
 8001f94:	6022      	str	r2, [r4, #0]
 8001f96:	4333      	orrs	r3, r6
 8001f98:	d00c      	beq.n	8001fb4 <_printf_i+0x104>
 8001f9a:	9d03      	ldr	r5, [sp, #12]
 8001f9c:	0030      	movs	r0, r6
 8001f9e:	0039      	movs	r1, r7
 8001fa0:	f7fe f94a 	bl	8000238 <__aeabi_uidivmod>
 8001fa4:	9b04      	ldr	r3, [sp, #16]
 8001fa6:	3d01      	subs	r5, #1
 8001fa8:	5c5b      	ldrb	r3, [r3, r1]
 8001faa:	702b      	strb	r3, [r5, #0]
 8001fac:	0033      	movs	r3, r6
 8001fae:	0006      	movs	r6, r0
 8001fb0:	429f      	cmp	r7, r3
 8001fb2:	d9f3      	bls.n	8001f9c <_printf_i+0xec>
 8001fb4:	2f08      	cmp	r7, #8
 8001fb6:	d109      	bne.n	8001fcc <_printf_i+0x11c>
 8001fb8:	6823      	ldr	r3, [r4, #0]
 8001fba:	07db      	lsls	r3, r3, #31
 8001fbc:	d506      	bpl.n	8001fcc <_printf_i+0x11c>
 8001fbe:	6862      	ldr	r2, [r4, #4]
 8001fc0:	6923      	ldr	r3, [r4, #16]
 8001fc2:	429a      	cmp	r2, r3
 8001fc4:	dc02      	bgt.n	8001fcc <_printf_i+0x11c>
 8001fc6:	2330      	movs	r3, #48	@ 0x30
 8001fc8:	3d01      	subs	r5, #1
 8001fca:	702b      	strb	r3, [r5, #0]
 8001fcc:	9b03      	ldr	r3, [sp, #12]
 8001fce:	1b5b      	subs	r3, r3, r5
 8001fd0:	6123      	str	r3, [r4, #16]
 8001fd2:	9b07      	ldr	r3, [sp, #28]
 8001fd4:	0021      	movs	r1, r4
 8001fd6:	9300      	str	r3, [sp, #0]
 8001fd8:	9805      	ldr	r0, [sp, #20]
 8001fda:	9b06      	ldr	r3, [sp, #24]
 8001fdc:	aa09      	add	r2, sp, #36	@ 0x24
 8001fde:	f7ff fef7 	bl	8001dd0 <_printf_common>
 8001fe2:	3001      	adds	r0, #1
 8001fe4:	d148      	bne.n	8002078 <_printf_i+0x1c8>
 8001fe6:	2001      	movs	r0, #1
 8001fe8:	4240      	negs	r0, r0
 8001fea:	b00b      	add	sp, #44	@ 0x2c
 8001fec:	bdf0      	pop	{r4, r5, r6, r7, pc}
 8001fee:	2220      	movs	r2, #32
 8001ff0:	6809      	ldr	r1, [r1, #0]
 8001ff2:	430a      	orrs	r2, r1
 8001ff4:	6022      	str	r2, [r4, #0]
 8001ff6:	2278      	movs	r2, #120	@ 0x78
 8001ff8:	4932      	ldr	r1, [pc, #200]	@ (80020c4 <_printf_i+0x214>)
 8001ffa:	9104      	str	r1, [sp, #16]
 8001ffc:	0021      	movs	r1, r4
 8001ffe:	3145      	adds	r1, #69	@ 0x45
 8002000:	700a      	strb	r2, [r1, #0]
 8002002:	6819      	ldr	r1, [r3, #0]
 8002004:	6822      	ldr	r2, [r4, #0]
 8002006:	c940      	ldmia	r1!, {r6}
 8002008:	0610      	lsls	r0, r2, #24
 800200a:	d402      	bmi.n	8002012 <_printf_i+0x162>
 800200c:	0650      	lsls	r0, r2, #25
 800200e:	d500      	bpl.n	8002012 <_printf_i+0x162>
 8002010:	b2b6      	uxth	r6, r6
 8002012:	6019      	str	r1, [r3, #0]
 8002014:	07d3      	lsls	r3, r2, #31
 8002016:	d502      	bpl.n	800201e <_printf_i+0x16e>
 8002018:	2320      	movs	r3, #32
 800201a:	4313      	orrs	r3, r2
 800201c:	6023      	str	r3, [r4, #0]
 800201e:	2e00      	cmp	r6, #0
 8002020:	d001      	beq.n	8002026 <_printf_i+0x176>
 8002022:	2710      	movs	r7, #16
 8002024:	e7aa      	b.n	8001f7c <_printf_i+0xcc>
 8002026:	2220      	movs	r2, #32
 8002028:	6823      	ldr	r3, [r4, #0]
 800202a:	4393      	bics	r3, r2
 800202c:	6023      	str	r3, [r4, #0]
 800202e:	e7f8      	b.n	8002022 <_printf_i+0x172>
 8002030:	681a      	ldr	r2, [r3, #0]
 8002032:	680d      	ldr	r5, [r1, #0]
 8002034:	1d10      	adds	r0, r2, #4
 8002036:	6949      	ldr	r1, [r1, #20]
 8002038:	6018      	str	r0, [r3, #0]
 800203a:	6813      	ldr	r3, [r2, #0]
 800203c:	062e      	lsls	r6, r5, #24
 800203e:	d501      	bpl.n	8002044 <_printf_i+0x194>
 8002040:	6019      	str	r1, [r3, #0]
 8002042:	e002      	b.n	800204a <_printf_i+0x19a>
 8002044:	066d      	lsls	r5, r5, #25
 8002046:	d5fb      	bpl.n	8002040 <_printf_i+0x190>
 8002048:	8019      	strh	r1, [r3, #0]
 800204a:	2300      	movs	r3, #0
 800204c:	9d03      	ldr	r5, [sp, #12]
 800204e:	6123      	str	r3, [r4, #16]
 8002050:	e7bf      	b.n	8001fd2 <_printf_i+0x122>
 8002052:	681a      	ldr	r2, [r3, #0]
 8002054:	1d11      	adds	r1, r2, #4
 8002056:	6019      	str	r1, [r3, #0]
 8002058:	6815      	ldr	r5, [r2, #0]
 800205a:	2100      	movs	r1, #0
 800205c:	0028      	movs	r0, r5
 800205e:	6862      	ldr	r2, [r4, #4]
 8002060:	f000 f856 	bl	8002110 <memchr>
 8002064:	2800      	cmp	r0, #0
 8002066:	d001      	beq.n	800206c <_printf_i+0x1bc>
 8002068:	1b40      	subs	r0, r0, r5
 800206a:	6060      	str	r0, [r4, #4]
 800206c:	6863      	ldr	r3, [r4, #4]
 800206e:	6123      	str	r3, [r4, #16]
 8002070:	2300      	movs	r3, #0
 8002072:	9a03      	ldr	r2, [sp, #12]
 8002074:	7013      	strb	r3, [r2, #0]
 8002076:	e7ac      	b.n	8001fd2 <_printf_i+0x122>
 8002078:	002a      	movs	r2, r5
 800207a:	6923      	ldr	r3, [r4, #16]
 800207c:	9906      	ldr	r1, [sp, #24]
 800207e:	9805      	ldr	r0, [sp, #20]
 8002080:	9d07      	ldr	r5, [sp, #28]
 8002082:	47a8      	blx	r5
 8002084:	3001      	adds	r0, #1
 8002086:	d0ae      	beq.n	8001fe6 <_printf_i+0x136>
 8002088:	6823      	ldr	r3, [r4, #0]
 800208a:	079b      	lsls	r3, r3, #30
 800208c:	d415      	bmi.n	80020ba <_printf_i+0x20a>
 800208e:	9b09      	ldr	r3, [sp, #36]	@ 0x24
 8002090:	68e0      	ldr	r0, [r4, #12]
 8002092:	4298      	cmp	r0, r3
 8002094:	daa9      	bge.n	8001fea <_printf_i+0x13a>
 8002096:	0018      	movs	r0, r3
 8002098:	e7a7      	b.n	8001fea <_printf_i+0x13a>
 800209a:	0022      	movs	r2, r4
 800209c:	2301      	movs	r3, #1
 800209e:	9906      	ldr	r1, [sp, #24]
 80020a0:	9805      	ldr	r0, [sp, #20]
 80020a2:	9e07      	ldr	r6, [sp, #28]
 80020a4:	3219      	adds	r2, #25
 80020a6:	47b0      	blx	r6
 80020a8:	3001      	adds	r0, #1
 80020aa:	d09c      	beq.n	8001fe6 <_printf_i+0x136>
 80020ac:	3501      	adds	r5, #1
 80020ae:	68e3      	ldr	r3, [r4, #12]
 80020b0:	9a09      	ldr	r2, [sp, #36]	@ 0x24
 80020b2:	1a9b      	subs	r3, r3, r2
 80020b4:	42ab      	cmp	r3, r5
 80020b6:	dcf0      	bgt.n	800209a <_printf_i+0x1ea>
 80020b8:	e7e9      	b.n	800208e <_printf_i+0x1de>
 80020ba:	2500      	movs	r5, #0
 80020bc:	e7f7      	b.n	80020ae <_printf_i+0x1fe>
 80020be:	46c0      	nop			@ (mov r8, r8)
 80020c0:	080022f3 	.word	0x080022f3
 80020c4:	08002304 	.word	0x08002304

080020c8 <memmove>:
 80020c8:	b510      	push	{r4, lr}
 80020ca:	4288      	cmp	r0, r1
 80020cc:	d902      	bls.n	80020d4 <memmove+0xc>
 80020ce:	188b      	adds	r3, r1, r2
 80020d0:	4298      	cmp	r0, r3
 80020d2:	d308      	bcc.n	80020e6 <memmove+0x1e>
 80020d4:	2300      	movs	r3, #0
 80020d6:	429a      	cmp	r2, r3
 80020d8:	d007      	beq.n	80020ea <memmove+0x22>
 80020da:	5ccc      	ldrb	r4, [r1, r3]
 80020dc:	54c4      	strb	r4, [r0, r3]
 80020de:	3301      	adds	r3, #1
 80020e0:	e7f9      	b.n	80020d6 <memmove+0xe>
 80020e2:	5c8b      	ldrb	r3, [r1, r2]
 80020e4:	5483      	strb	r3, [r0, r2]
 80020e6:	3a01      	subs	r2, #1
 80020e8:	d2fb      	bcs.n	80020e2 <memmove+0x1a>
 80020ea:	bd10      	pop	{r4, pc}

080020ec <_sbrk_r>:
 80020ec:	2300      	movs	r3, #0
 80020ee:	b570      	push	{r4, r5, r6, lr}
 80020f0:	4d06      	ldr	r5, [pc, #24]	@ (800210c <_sbrk_r+0x20>)
 80020f2:	0004      	movs	r4, r0
 80020f4:	0008      	movs	r0, r1
 80020f6:	602b      	str	r3, [r5, #0]
 80020f8:	f7ff fb48 	bl	800178c <_sbrk>
 80020fc:	1c43      	adds	r3, r0, #1
 80020fe:	d103      	bne.n	8002108 <_sbrk_r+0x1c>
 8002100:	682b      	ldr	r3, [r5, #0]
 8002102:	2b00      	cmp	r3, #0
 8002104:	d000      	beq.n	8002108 <_sbrk_r+0x1c>
 8002106:	6023      	str	r3, [r4, #0]
 8002108:	bd70      	pop	{r4, r5, r6, pc}
 800210a:	46c0      	nop			@ (mov r8, r8)
 800210c:	20000210 	.word	0x20000210

08002110 <memchr>:
 8002110:	b2c9      	uxtb	r1, r1
 8002112:	1882      	adds	r2, r0, r2
 8002114:	4290      	cmp	r0, r2
 8002116:	d101      	bne.n	800211c <memchr+0xc>
 8002118:	2000      	movs	r0, #0
 800211a:	4770      	bx	lr
 800211c:	7803      	ldrb	r3, [r0, #0]
 800211e:	428b      	cmp	r3, r1
 8002120:	d0fb      	beq.n	800211a <memchr+0xa>
 8002122:	3001      	adds	r0, #1
 8002124:	e7f6      	b.n	8002114 <memchr+0x4>

08002126 <memcpy>:
 8002126:	2300      	movs	r3, #0
 8002128:	b510      	push	{r4, lr}
 800212a:	429a      	cmp	r2, r3
 800212c:	d100      	bne.n	8002130 <memcpy+0xa>
 800212e:	bd10      	pop	{r4, pc}
 8002130:	5ccc      	ldrb	r4, [r1, r3]
 8002132:	54c4      	strb	r4, [r0, r3]
 8002134:	3301      	adds	r3, #1
 8002136:	e7f8      	b.n	800212a <memcpy+0x4>

08002138 <_realloc_r>:
 8002138:	b5f7      	push	{r0, r1, r2, r4, r5, r6, r7, lr}
 800213a:	0006      	movs	r6, r0
 800213c:	000c      	movs	r4, r1
 800213e:	0015      	movs	r5, r2
 8002140:	2900      	cmp	r1, #0
 8002142:	d105      	bne.n	8002150 <_realloc_r+0x18>
 8002144:	0011      	movs	r1, r2
 8002146:	f7ff fc55 	bl	80019f4 <_malloc_r>
 800214a:	0004      	movs	r4, r0
 800214c:	0020      	movs	r0, r4
 800214e:	bdfe      	pop	{r1, r2, r3, r4, r5, r6, r7, pc}
 8002150:	2a00      	cmp	r2, #0
 8002152:	d103      	bne.n	800215c <_realloc_r+0x24>
 8002154:	f7ff fbe2 	bl	800191c <_free_r>
 8002158:	002c      	movs	r4, r5
 800215a:	e7f7      	b.n	800214c <_realloc_r+0x14>
 800215c:	f000 f81c 	bl	8002198 <_malloc_usable_size_r>
 8002160:	0007      	movs	r7, r0
 8002162:	4285      	cmp	r5, r0
 8002164:	d802      	bhi.n	800216c <_realloc_r+0x34>
 8002166:	0843      	lsrs	r3, r0, #1
 8002168:	42ab      	cmp	r3, r5
 800216a:	d3ef      	bcc.n	800214c <_realloc_r+0x14>
 800216c:	0029      	movs	r1, r5
 800216e:	0030      	movs	r0, r6
 8002170:	f7ff fc40 	bl	80019f4 <_malloc_r>
 8002174:	9001      	str	r0, [sp, #4]
 8002176:	2800      	cmp	r0, #0
 8002178:	d101      	bne.n	800217e <_realloc_r+0x46>
 800217a:	9c01      	ldr	r4, [sp, #4]
 800217c:	e7e6      	b.n	800214c <_realloc_r+0x14>
 800217e:	002a      	movs	r2, r5
 8002180:	42bd      	cmp	r5, r7
 8002182:	d900      	bls.n	8002186 <_realloc_r+0x4e>
 8002184:	003a      	movs	r2, r7
 8002186:	0021      	movs	r1, r4
 8002188:	9801      	ldr	r0, [sp, #4]
 800218a:	f7ff ffcc 	bl	8002126 <memcpy>
 800218e:	0021      	movs	r1, r4
 8002190:	0030      	movs	r0, r6
 8002192:	f7ff fbc3 	bl	800191c <_free_r>
 8002196:	e7f0      	b.n	800217a <_realloc_r+0x42>

08002198 <_malloc_usable_size_r>:
 8002198:	1f0b      	subs	r3, r1, #4
 800219a:	681b      	ldr	r3, [r3, #0]
 800219c:	1f18      	subs	r0, r3, #4
 800219e:	2b00      	cmp	r3, #0
 80021a0:	da01      	bge.n	80021a6 <_malloc_usable_size_r+0xe>
 80021a2:	580b      	ldr	r3, [r1, r0]
 80021a4:	18c0      	adds	r0, r0, r3
 80021a6:	4770      	bx	lr

080021a8 <_init>:
 80021a8:	b5f8      	push	{r3, r4, r5, r6, r7, lr}
 80021aa:	46c0      	nop			@ (mov r8, r8)
 80021ac:	bcf8      	pop	{r3, r4, r5, r6, r7}
 80021ae:	bc08      	pop	{r3}
 80021b0:	469e      	mov	lr, r3
 80021b2:	4770      	bx	lr

080021b4 <_fini>:
 80021b4:	b5f8      	push	{r3, r4, r5, r6, r7, lr}
 80021b6:	46c0      	nop			@ (mov r8, r8)
 80021b8:	bcf8      	pop	{r3, r4, r5, r6, r7}
 80021ba:	bc08      	pop	{r3}
 80021bc:	469e      	mov	lr, r3
 80021be:	4770      	bx	lr
